   1              		.cpu cortex-m0
   2              		.fpu softvfp
   3              		.eabi_attribute 20, 1
   4              		.eabi_attribute 21, 1
   5              		.eabi_attribute 23, 3
   6              		.eabi_attribute 24, 1
   7              		.eabi_attribute 25, 1
   8              		.eabi_attribute 26, 1
   9              		.eabi_attribute 30, 4
  10              		.eabi_attribute 34, 0
  11              		.eabi_attribute 18, 4
  12              		.code	16
  13              		.file	"IO004.c"
  14              		.text
  15              	.Ltext0:
  16              		.cfi_sections	.debug_frame
  17              		.section	.text.IO004_Init,"ax",%progbits
  18              		.align	1
  19              		.global	IO004_Init
  20              		.code	16
  21              		.thumb_func
  23              	IO004_Init:
  24              	.LFB38:
  25              		.file 1 "../Dave/Generated/src/IO004/IO004.c"
   1:../Dave/Generated/src/IO004/IO004.c **** /*******************************************************************************
   2:../Dave/Generated/src/IO004/IO004.c **** **  DAVE App Name : IO004       App Version: 1.0.22               
   3:../Dave/Generated/src/IO004/IO004.c **** **  This file is generated by DAVE, User modification to this file will be    **
   4:../Dave/Generated/src/IO004/IO004.c **** **  overwritten at the next code generation.                                  **
   5:../Dave/Generated/src/IO004/IO004.c **** *******************************************************************************/
   6:../Dave/Generated/src/IO004/IO004.c **** 
   7:../Dave/Generated/src/IO004/IO004.c **** 
   8:../Dave/Generated/src/IO004/IO004.c **** /*CODE_BLOCK_BEGIN[IO004.c]*/
   9:../Dave/Generated/src/IO004/IO004.c **** /*******************************************************************************
  10:../Dave/Generated/src/IO004/IO004.c ****  Copyright (c) 2012, Infineon Technologies AG                                 **
  11:../Dave/Generated/src/IO004/IO004.c ****  All rights reserved.                                                         **
  12:../Dave/Generated/src/IO004/IO004.c ****                                                                               **
  13:../Dave/Generated/src/IO004/IO004.c ****  Redistribution and use in source and binary forms, with or without           **
  14:../Dave/Generated/src/IO004/IO004.c ****  modification,are permitted provided that the following conditions are met:   **
  15:../Dave/Generated/src/IO004/IO004.c ****                                                                               **
  16:../Dave/Generated/src/IO004/IO004.c ****  *Redistributions of source code must retain the above copyright notice,      **
  17:../Dave/Generated/src/IO004/IO004.c ****  this list of conditions and the following disclaimer.                        **
  18:../Dave/Generated/src/IO004/IO004.c ****  *Redistributions in binary form must reproduce the above copyright notice,   **
  19:../Dave/Generated/src/IO004/IO004.c ****  this list of conditions and the following disclaimer in the documentation    **
  20:../Dave/Generated/src/IO004/IO004.c ****  and/or other materials provided with the distribution.                       **
  21:../Dave/Generated/src/IO004/IO004.c ****  *Neither the name of the copyright holders nor the names of its contributors **
  22:../Dave/Generated/src/IO004/IO004.c ****  may be used to endorse or promote products derived from this software without**
  23:../Dave/Generated/src/IO004/IO004.c ****  specific prior written permission.                                           **
  24:../Dave/Generated/src/IO004/IO004.c ****                                                                               **
  25:../Dave/Generated/src/IO004/IO004.c ****  THIS SOFTWARE IS PROVIDED BY THE COPYRIGHT HOLDERS AND CONTRIBUTORS "AS IS"  **
  26:../Dave/Generated/src/IO004/IO004.c ****  AND ANY EXPRESS OR IMPLIED WARRANTIES, INCLUDING, BUT NOT LIMITED TO, THE    **
  27:../Dave/Generated/src/IO004/IO004.c ****  IMPLIED WARRANTIES OF MERCHANTABILITY AND FITNESS FOR A PARTICULAR PURPOSE   **
  28:../Dave/Generated/src/IO004/IO004.c ****  ARE  DISCLAIMED. IN NO EVENT SHALL THE COPYRIGHT HOLDER OR CONTRIBUTORS BE   **
  29:../Dave/Generated/src/IO004/IO004.c ****  LIABLE  FOR ANY DIRECT, INDIRECT, INCIDENTAL, SPECIAL, EXEMPLARY, OR         **
  30:../Dave/Generated/src/IO004/IO004.c ****  CONSEQUENTIAL DAMAGES (INCLUDING, BUT NOT LIMITED TO, PROCUREMENT OF         **
  31:../Dave/Generated/src/IO004/IO004.c ****  SUBSTITUTE GOODS OR  SERVICES; LOSS OF USE, DATA, OR PROFITS; OR BUSINESS    **
  32:../Dave/Generated/src/IO004/IO004.c ****  INTERRUPTION) HOWEVER CAUSED AND ON ANY THEORY OF LIABILITY, WHETHER IN      **
  33:../Dave/Generated/src/IO004/IO004.c ****  CONTRACT, STRICT LIABILITY,OR TORT (INCLUDING NEGLIGENCE OR OTHERWISE)       **
  34:../Dave/Generated/src/IO004/IO004.c ****  ARISING IN ANY WAY OUT OF THE USE OF THIS SOFTWARE, EVEN IF ADVISED OF THE   **
  35:../Dave/Generated/src/IO004/IO004.c ****  POSSIBILITY OF SUCH DAMAGE.                                                  **
  36:../Dave/Generated/src/IO004/IO004.c ****                                                                               **
  37:../Dave/Generated/src/IO004/IO004.c ****  To improve the quality of the software, users are encouraged to share        **
  38:../Dave/Generated/src/IO004/IO004.c ****  modifications, enhancements or bug fixes with Infineon Technologies AG       **
  39:../Dave/Generated/src/IO004/IO004.c ****  dave@infineon.com).                                                          **
  40:../Dave/Generated/src/IO004/IO004.c ****                                                                               **
  41:../Dave/Generated/src/IO004/IO004.c **** ********************************************************************************
  42:../Dave/Generated/src/IO004/IO004.c **** **                                                                            **
  43:../Dave/Generated/src/IO004/IO004.c **** **                                                                            **
  44:../Dave/Generated/src/IO004/IO004.c **** ** PLATFORM : Infineon XMC4000/XMC1000 Series                                 **
  45:../Dave/Generated/src/IO004/IO004.c **** **                                                                            **
  46:../Dave/Generated/src/IO004/IO004.c **** ** COMPILER : Compiler Independent                                            **
  47:../Dave/Generated/src/IO004/IO004.c **** **                                                                            **
  48:../Dave/Generated/src/IO004/IO004.c **** ** AUTHOR   : App Developer                                                   **
  49:../Dave/Generated/src/IO004/IO004.c **** **                                                                            **
  50:../Dave/Generated/src/IO004/IO004.c **** ** MAY BE CHANGED BY USER [yes/no]: Yes                                       **
  51:../Dave/Generated/src/IO004/IO004.c **** **                                                                            **
  52:../Dave/Generated/src/IO004/IO004.c **** ** MODIFICATION DATE : Mar 16, 2013                                           **
  53:../Dave/Generated/src/IO004/IO004.c **** **                                                                            **
  54:../Dave/Generated/src/IO004/IO004.c **** *******************************************************************************/
  55:../Dave/Generated/src/IO004/IO004.c **** /*******************************************************************************
  56:../Dave/Generated/src/IO004/IO004.c **** **                      Author(s) Identity                                    **
  57:../Dave/Generated/src/IO004/IO004.c **** ********************************************************************************
  58:../Dave/Generated/src/IO004/IO004.c **** **                                                                            **
  59:../Dave/Generated/src/IO004/IO004.c **** ** Initials     Name                                                          **
  60:../Dave/Generated/src/IO004/IO004.c **** ** ---------------------------------------------------------------------------**
  61:../Dave/Generated/src/IO004/IO004.c **** ** PAE        App Developer                                                   **
  62:../Dave/Generated/src/IO004/IO004.c **** *******************************************************************************/
  63:../Dave/Generated/src/IO004/IO004.c **** /**
  64:../Dave/Generated/src/IO004/IO004.c ****  * @file   IO004.c
  65:../Dave/Generated/src/IO004/IO004.c ****  *
  66:../Dave/Generated/src/IO004/IO004.c ****  * @brief  IO_Digital _IO004 App
  67:../Dave/Generated/src/IO004/IO004.c ****  *
  68:../Dave/Generated/src/IO004/IO004.c ****  * This app can be used to configure a IO Pin when the output shall be 
  69:../Dave/Generated/src/IO004/IO004.c ****  * controlled by software or when it required  just as a input I/O.IO002 App can 
  70:../Dave/Generated/src/IO004/IO004.c ****  * be used in any case except when the output shall be controlled by software.			
  71:../Dave/Generated/src/IO004/IO004.c ****  *
  72:../Dave/Generated/src/IO004/IO004.c ****  *	Note: 
  73:../Dave/Generated/src/IO004/IO004.c ****  *	The App GUI configures the Port Pin as GPIO in input mode by default.
  74:../Dave/Generated/src/IO004/IO004.c ****  */
  75:../Dave/Generated/src/IO004/IO004.c **** /* Revision History 
  76:../Dave/Generated/src/IO004/IO004.c ****  *
  77:../Dave/Generated/src/IO004/IO004.c ****  * 01 Jan 2013  v1.0.12  Disabled Pad Class & Pad driver configuration for 
  78:../Dave/Generated/src/IO004/IO004.c ****  *                       XMC1000.
  79:../Dave/Generated/src/IO004/IO004.c ****  * 16 Mar 2013  v1.0.14  Modified OMR register configuration (Direct assignment 
  80:../Dave/Generated/src/IO004/IO004.c ****  *                       without reading) to upgrade performance.
  81:../Dave/Generated/src/IO004/IO004.c ****  *
  82:../Dave/Generated/src/IO004/IO004.c ****  */
  83:../Dave/Generated/src/IO004/IO004.c **** /*******************************************************************************
  84:../Dave/Generated/src/IO004/IO004.c ****  ** INCLUDE FILES                                                             **
  85:../Dave/Generated/src/IO004/IO004.c ****  ******************************************************************************/
  86:../Dave/Generated/src/IO004/IO004.c **** 
  87:../Dave/Generated/src/IO004/IO004.c **** /** Inclusion of header file */
  88:../Dave/Generated/src/IO004/IO004.c **** #include <DAVE3.h>
  89:../Dave/Generated/src/IO004/IO004.c **** 
  90:../Dave/Generated/src/IO004/IO004.c **** /*******************************************************************************
  91:../Dave/Generated/src/IO004/IO004.c **** **                      Private Macro Definitions                             **
  92:../Dave/Generated/src/IO004/IO004.c **** *******************************************************************************/
  93:../Dave/Generated/src/IO004/IO004.c **** 
  94:../Dave/Generated/src/IO004/IO004.c **** /*******************************************************************************
  95:../Dave/Generated/src/IO004/IO004.c **** **                      Private Type Definitions                              **
  96:../Dave/Generated/src/IO004/IO004.c **** *******************************************************************************/
  97:../Dave/Generated/src/IO004/IO004.c **** 
  98:../Dave/Generated/src/IO004/IO004.c **** /*******************************************************************************
  99:../Dave/Generated/src/IO004/IO004.c **** **                 Private Function Declarations:
 100:../Dave/Generated/src/IO004/IO004.c **** *******************************************************************************/
 101:../Dave/Generated/src/IO004/IO004.c **** 
 102:../Dave/Generated/src/IO004/IO004.c **** /*******************************************************************************
 103:../Dave/Generated/src/IO004/IO004.c **** **                      Global Constant Definitions                           **
 104:../Dave/Generated/src/IO004/IO004.c **** *******************************************************************************/
 105:../Dave/Generated/src/IO004/IO004.c **** 
 106:../Dave/Generated/src/IO004/IO004.c **** /*******************************************************************************
 107:../Dave/Generated/src/IO004/IO004.c **** **                      Global Variable Definitions                           **
 108:../Dave/Generated/src/IO004/IO004.c **** *******************************************************************************/
 109:../Dave/Generated/src/IO004/IO004.c **** 
 110:../Dave/Generated/src/IO004/IO004.c **** /*******************************************************************************
 111:../Dave/Generated/src/IO004/IO004.c **** **                      Private Constant Definitions                          **
 112:../Dave/Generated/src/IO004/IO004.c **** *******************************************************************************/
 113:../Dave/Generated/src/IO004/IO004.c **** 
 114:../Dave/Generated/src/IO004/IO004.c **** /*******************************************************************************
 115:../Dave/Generated/src/IO004/IO004.c **** **                 Function like macro definitions                            **
 116:../Dave/Generated/src/IO004/IO004.c **** *******************************************************************************/
 117:../Dave/Generated/src/IO004/IO004.c **** /*******************************************************************************
 118:../Dave/Generated/src/IO004/IO004.c **** **                      Private Function Definitions                          **
 119:../Dave/Generated/src/IO004/IO004.c **** *******************************************************************************/
 120:../Dave/Generated/src/IO004/IO004.c **** 
 121:../Dave/Generated/src/IO004/IO004.c **** /*******************************************************************************
 122:../Dave/Generated/src/IO004/IO004.c **** **                      Public Function Definitions                           **
 123:../Dave/Generated/src/IO004/IO004.c **** *******************************************************************************/
 124:../Dave/Generated/src/IO004/IO004.c **** /** @ingroup IO004_Func
 125:../Dave/Generated/src/IO004/IO004.c ****  * @{
 126:../Dave/Generated/src/IO004/IO004.c ****  */
 127:../Dave/Generated/src/IO004/IO004.c **** 
 128:../Dave/Generated/src/IO004/IO004.c **** void IO004_Init(void)
 129:../Dave/Generated/src/IO004/IO004.c **** {
  26              		.loc 1 129 0
  27              		.cfi_startproc
 130:../Dave/Generated/src/IO004/IO004.c ****    /* <<<DD_IO004_API_1>>> */
 131:../Dave/Generated/src/IO004/IO004.c **** 
 132:../Dave/Generated/src/IO004/IO004.c **** 	   
 133:../Dave/Generated/src/IO004/IO004.c **** 
 134:../Dave/Generated/src/IO004/IO004.c ****   /* Configuration of 0 Port 13 based on User configuration */
 135:../Dave/Generated/src/IO004/IO004.c ****   IO004_Handle0.PortRegs->OMR = 0U<< 13;
  28              		.loc 1 135 0
  29 0000 054B     		ldr	r3, .L2
  30 0002 0022     		mov	r2, #0
  31 0004 5868     		ldr	r0, [r3, #4]
 136:../Dave/Generated/src/IO004/IO004.c ****   
 137:../Dave/Generated/src/IO004/IO004.c ****   IO004_Handle0.PortRegs->IOCR12 |= (0U << 11);   
 138:../Dave/Generated/src/IO004/IO004.c **** 
 139:../Dave/Generated/src/IO004/IO004.c ****   /* Configuration of 0 Port 0 based on User configuration */
 140:../Dave/Generated/src/IO004/IO004.c ****   IO004_Handle1.PortRegs->OMR = 0U<< 0;
  32              		.loc 1 140 0
  33 0006 054B     		ldr	r3, .L2+4
 135:../Dave/Generated/src/IO004/IO004.c ****   IO004_Handle0.PortRegs->OMR = 0U<< 13;
  34              		.loc 1 135 0
  35 0008 4260     		str	r2, [r0, #4]
 137:../Dave/Generated/src/IO004/IO004.c ****   IO004_Handle0.PortRegs->IOCR12 |= (0U << 11);   
  36              		.loc 1 137 0
  37 000a C169     		ldr	r1, [r0, #28]
 141:../Dave/Generated/src/IO004/IO004.c ****   
 142:../Dave/Generated/src/IO004/IO004.c ****   IO004_Handle1.PortRegs->IOCR0 |= (0U << 3);
 143:../Dave/Generated/src/IO004/IO004.c **** }
  38              		.loc 1 143 0
  39              		@ sp needed for prologue
 137:../Dave/Generated/src/IO004/IO004.c ****   IO004_Handle0.PortRegs->IOCR12 |= (0U << 11);   
  40              		.loc 1 137 0
  41 000c C161     		str	r1, [r0, #28]
 140:../Dave/Generated/src/IO004/IO004.c ****   IO004_Handle1.PortRegs->OMR = 0U<< 0;
  42              		.loc 1 140 0
  43 000e 5868     		ldr	r0, [r3, #4]
  44 0010 4260     		str	r2, [r0, #4]
 142:../Dave/Generated/src/IO004/IO004.c ****   IO004_Handle1.PortRegs->IOCR0 |= (0U << 3);
  45              		.loc 1 142 0
  46 0012 0269     		ldr	r2, [r0, #16]
  47 0014 0261     		str	r2, [r0, #16]
  48              		.loc 1 143 0
  49 0016 7047     		bx	lr
  50              	.L3:
  51              		.align	2
  52              	.L2:
  53 0018 00000000 		.word	IO004_Handle0
  54 001c 00000000 		.word	IO004_Handle1
  55              		.cfi_endproc
  56              	.LFE38:
  58              		.section	.text.IO004_DisableOutputDriver,"ax",%progbits
  59              		.align	1
  60              		.global	IO004_DisableOutputDriver
  61              		.code	16
  62              		.thumb_func
  64              	IO004_DisableOutputDriver:
  65              	.LFB39:
 144:../Dave/Generated/src/IO004/IO004.c **** 
 145:../Dave/Generated/src/IO004/IO004.c **** void IO004_DisableOutputDriver(const IO004_HandleType* Handle,IO004_InputModeType Mode)
 146:../Dave/Generated/src/IO004/IO004.c **** {
  66              		.loc 1 146 0
  67              		.cfi_startproc
  68              	.LVL0:
  69 0000 30B5     		push	{r4, r5, lr}
  70              	.LCFI0:
  71              		.cfi_def_cfa_offset 12
  72              		.cfi_offset 4, -12
  73              		.cfi_offset 5, -8
  74              		.cfi_offset 14, -4
 147:../Dave/Generated/src/IO004/IO004.c ****   uint8_t Pin = Handle->PortPin;
  75              		.loc 1 147 0
  76 0002 4378     		ldrb	r3, [r0, #1]
  77              	.LVL1:
 148:../Dave/Generated/src/IO004/IO004.c ****   /* <<<DD_IO004_API_2>>> */
 149:../Dave/Generated/src/IO004/IO004.c ****   if(Pin < 4U)
  78              		.loc 1 149 0
  79 0004 032B     		cmp	r3, #3
  80 0006 0ED8     		bhi	.L5
 150:../Dave/Generated/src/IO004/IO004.c ****   {
 151:../Dave/Generated/src/IO004/IO004.c ****     Handle->PortRegs->IOCR0  =  (uint32_t)(Handle->PortRegs->IOCR0 & ~(0x0000001FUL << (3U+(Pin*8U)
  81              		.loc 1 151 0
  82 0008 4268     		ldr	r2, [r0, #4]
  83 000a DB00     		lsl	r3, r3, #3
  84 000c 1F20     		mov	r0, #31
  85              	.LVL2:
  86 000e 1469     		ldr	r4, [r2, #16]
  87 0010 0333     		add	r3, r3, #3
  88 0012 051C     		mov	r5, r0
  89 0014 9D40     		lsl	r5, r5, r3
  90 0016 AC43     		bic	r4, r5
  91 0018 1461     		str	r4, [r2, #16]
 152:../Dave/Generated/src/IO004/IO004.c ****     Handle->PortRegs->IOCR0 |= (uint32_t)(((uint32_t)Mode & 0x1FUL) << (3U+(Pin*8U)));
  92              		.loc 1 152 0
  93 001a 1469     		ldr	r4, [r2, #16]
  94 001c 0140     		and	r1, r0
  95              	.LVL3:
  96 001e 9940     		lsl	r1, r1, r3
  97 0020 2143     		orr	r1, r4
  98 0022 1161     		str	r1, [r2, #16]
  99 0024 38E0     		b	.L4
 100              	.LVL4:
 101              	.L5:
 153:../Dave/Generated/src/IO004/IO004.c ****   } else if ((Pin >= 4U) && (Pin <= 7U))
 102              		.loc 1 153 0
 103 0026 1C1F     		sub	r4, r3, #4
 104 0028 E4B2     		uxtb	r4, r4
 105 002a 032C     		cmp	r4, #3
 106 002c 0ED8     		bhi	.L7
 107              	.LVL5:
 154:../Dave/Generated/src/IO004/IO004.c ****   {
 155:../Dave/Generated/src/IO004/IO004.c ****     Pin = Pin - 4U;
 156:../Dave/Generated/src/IO004/IO004.c ****     Handle->PortRegs->IOCR4  =  (uint32_t)(Handle->PortRegs->IOCR4 & ~(0x0000001FUL << (3U+(Pin*8U)
 108              		.loc 1 156 0
 109 002e 4268     		ldr	r2, [r0, #4]
 110 0030 1F23     		mov	r3, #31
 111 0032 E000     		lsl	r0, r4, #3
 112              	.LVL6:
 113 0034 5569     		ldr	r5, [r2, #20]
 114 0036 0330     		add	r0, r0, #3
 115 0038 1C1C     		mov	r4, r3
 116              	.LVL7:
 117 003a 8440     		lsl	r4, r4, r0
 118 003c A543     		bic	r5, r4
 119 003e 5561     		str	r5, [r2, #20]
 157:../Dave/Generated/src/IO004/IO004.c ****     Handle->PortRegs->IOCR4 |=  (uint32_t)(((uint32_t)Mode & 0x1FUL) << (3U+(Pin*8U)));
 120              		.loc 1 157 0
 121 0040 5469     		ldr	r4, [r2, #20]
 122 0042 1940     		and	r1, r3
 123              	.LVL8:
 124 0044 8140     		lsl	r1, r1, r0
 125 0046 2143     		orr	r1, r4
 126 0048 5161     		str	r1, [r2, #20]
 127 004a 25E0     		b	.L4
 128              	.LVL9:
 129              	.L7:
 158:../Dave/Generated/src/IO004/IO004.c ****   } else if ((Pin >= 8U) && (Pin <= 11U))
 130              		.loc 1 158 0
 131 004c 1A1C     		mov	r2, r3
 132 004e 083A     		sub	r2, r2, #8
 133 0050 D4B2     		uxtb	r4, r2
 134 0052 032C     		cmp	r4, #3
 135 0054 0ED8     		bhi	.L8
 136              	.LVL10:
 159:../Dave/Generated/src/IO004/IO004.c ****   {
 160:../Dave/Generated/src/IO004/IO004.c ****     Pin = Pin - 8U;
 161:../Dave/Generated/src/IO004/IO004.c ****     Handle->PortRegs->IOCR8  =  (uint32_t)(Handle->PortRegs->IOCR8 & ~(0x0000001FUL << (3U+(Pin*8U)
 137              		.loc 1 161 0
 138 0056 4268     		ldr	r2, [r0, #4]
 139              	.LVL11:
 140 0058 1F23     		mov	r3, #31
 141 005a E000     		lsl	r0, r4, #3
 142              	.LVL12:
 143 005c 9569     		ldr	r5, [r2, #24]
 144 005e 0330     		add	r0, r0, #3
 145 0060 1C1C     		mov	r4, r3
 146              	.LVL13:
 147 0062 8440     		lsl	r4, r4, r0
 148 0064 A543     		bic	r5, r4
 149 0066 9561     		str	r5, [r2, #24]
 162:../Dave/Generated/src/IO004/IO004.c ****     Handle->PortRegs->IOCR8 |=  (uint32_t)(((uint32_t)Mode & 0x1FUL) << (3U+(Pin*8U)));
 150              		.loc 1 162 0
 151 0068 9469     		ldr	r4, [r2, #24]
 152 006a 1940     		and	r1, r3
 153              	.LVL14:
 154 006c 8140     		lsl	r1, r1, r0
 155 006e 2143     		orr	r1, r4
 156 0070 9161     		str	r1, [r2, #24]
 157 0072 11E0     		b	.L4
 158              	.LVL15:
 159              	.L8:
 163:../Dave/Generated/src/IO004/IO004.c ****   } else if ((Pin >= 12U) && (Pin <= 15U))
 160              		.loc 1 163 0
 161 0074 0C3B     		sub	r3, r3, #12
 162 0076 DDB2     		uxtb	r5, r3
 163 0078 032D     		cmp	r5, #3
 164 007a 0DD8     		bhi	.L4
 165              	.LVL16:
 164:../Dave/Generated/src/IO004/IO004.c ****   {
 165:../Dave/Generated/src/IO004/IO004.c ****     Pin = Pin - 12U;
 166:../Dave/Generated/src/IO004/IO004.c ****     Handle->PortRegs->IOCR12  =  (uint32_t)(Handle->PortRegs->IOCR12 & ~(0x0000001FUL << (3U+(Pin*8
 166              		.loc 1 166 0
 167 007c 4268     		ldr	r2, [r0, #4]
 168 007e EB00     		lsl	r3, r5, #3
 169              	.LVL17:
 170 0080 1F20     		mov	r0, #31
 171              	.LVL18:
 172 0082 D469     		ldr	r4, [r2, #28]
 173 0084 0333     		add	r3, r3, #3
 174 0086 051C     		mov	r5, r0
 175              	.LVL19:
 176 0088 9D40     		lsl	r5, r5, r3
 177 008a AC43     		bic	r4, r5
 178 008c D461     		str	r4, [r2, #28]
 167:../Dave/Generated/src/IO004/IO004.c ****     Handle->PortRegs->IOCR12 |=  (uint32_t)(((uint32_t)Mode & 0x1FUL) << (3U+(Pin*8U)));
 179              		.loc 1 167 0
 180 008e D469     		ldr	r4, [r2, #28]
 181 0090 0140     		and	r1, r0
 182              	.LVL20:
 183 0092 9940     		lsl	r1, r1, r3
 184 0094 2143     		orr	r1, r4
 185 0096 D161     		str	r1, [r2, #28]
 186              	.LVL21:
 187              	.L4:
 168:../Dave/Generated/src/IO004/IO004.c ****   }
 169:../Dave/Generated/src/IO004/IO004.c ****   else
 170:../Dave/Generated/src/IO004/IO004.c ****   {
 171:../Dave/Generated/src/IO004/IO004.c **** 	  /*Not supposed to be here */
 172:../Dave/Generated/src/IO004/IO004.c ****   }
 173:../Dave/Generated/src/IO004/IO004.c **** 
 174:../Dave/Generated/src/IO004/IO004.c **** }
 188              		.loc 1 174 0
 189              		@ sp needed for prologue
 190 0098 30BD     		pop	{r4, r5, pc}
 191              		.cfi_endproc
 192              	.LFE39:
 194              		.section	.text.IO004_EnableOutputDriver,"ax",%progbits
 195              		.align	1
 196              		.global	IO004_EnableOutputDriver
 197              		.code	16
 198              		.thumb_func
 200              	IO004_EnableOutputDriver:
 201              	.LFB40:
 175:../Dave/Generated/src/IO004/IO004.c **** 
 176:../Dave/Generated/src/IO004/IO004.c **** void IO004_EnableOutputDriver(const IO004_HandleType* Handle,IO004_OutputModeType Mode)
 177:../Dave/Generated/src/IO004/IO004.c **** {
 202              		.loc 1 177 0
 203              		.cfi_startproc
 204              	.LVL22:
 205 0000 30B5     		push	{r4, r5, lr}
 206              	.LCFI1:
 207              		.cfi_def_cfa_offset 12
 208              		.cfi_offset 4, -12
 209              		.cfi_offset 5, -8
 210              		.cfi_offset 14, -4
 178:../Dave/Generated/src/IO004/IO004.c **** 
 179:../Dave/Generated/src/IO004/IO004.c ****   uint8_t Pin = Handle->PortPin;
 211              		.loc 1 179 0
 212 0002 4378     		ldrb	r3, [r0, #1]
 213              	.LVL23:
 180:../Dave/Generated/src/IO004/IO004.c ****   /* <<<DD_IO004_API_2>>> */
 181:../Dave/Generated/src/IO004/IO004.c ****   if(Pin < 4U)
 214              		.loc 1 181 0
 215 0004 032B     		cmp	r3, #3
 216 0006 0ED8     		bhi	.L11
 182:../Dave/Generated/src/IO004/IO004.c ****   {
 183:../Dave/Generated/src/IO004/IO004.c ****     Handle->PortRegs->IOCR0  =  (uint32_t)(Handle->PortRegs->IOCR0 & ~(0x0000001FUL << (3U+(Pin*8U)
 217              		.loc 1 183 0
 218 0008 4268     		ldr	r2, [r0, #4]
 219 000a DB00     		lsl	r3, r3, #3
 220 000c 1F20     		mov	r0, #31
 221              	.LVL24:
 222 000e 1469     		ldr	r4, [r2, #16]
 223 0010 0333     		add	r3, r3, #3
 224 0012 051C     		mov	r5, r0
 225 0014 9D40     		lsl	r5, r5, r3
 226 0016 AC43     		bic	r4, r5
 227 0018 1461     		str	r4, [r2, #16]
 184:../Dave/Generated/src/IO004/IO004.c ****     Handle->PortRegs->IOCR0 |=  (uint32_t)(((uint32_t)Mode & 0x1FUL) << (3U+(Pin*8U)));
 228              		.loc 1 184 0
 229 001a 1469     		ldr	r4, [r2, #16]
 230 001c 0140     		and	r1, r0
 231              	.LVL25:
 232 001e 9940     		lsl	r1, r1, r3
 233 0020 2143     		orr	r1, r4
 234 0022 1161     		str	r1, [r2, #16]
 235 0024 38E0     		b	.L10
 236              	.LVL26:
 237              	.L11:
 185:../Dave/Generated/src/IO004/IO004.c ****   } else if ((Pin >= 4U) && (Pin <= 7U))
 238              		.loc 1 185 0
 239 0026 1C1F     		sub	r4, r3, #4
 240 0028 E4B2     		uxtb	r4, r4
 241 002a 032C     		cmp	r4, #3
 242 002c 0ED8     		bhi	.L13
 243              	.LVL27:
 186:../Dave/Generated/src/IO004/IO004.c ****   {
 187:../Dave/Generated/src/IO004/IO004.c ****     Pin = Pin - 4U;
 188:../Dave/Generated/src/IO004/IO004.c ****     Handle->PortRegs->IOCR4  =  (uint32_t)(Handle->PortRegs->IOCR4 & ~(0x0000001FUL << (3U+(Pin*8U)
 244              		.loc 1 188 0
 245 002e 4268     		ldr	r2, [r0, #4]
 246 0030 1F23     		mov	r3, #31
 247 0032 E000     		lsl	r0, r4, #3
 248              	.LVL28:
 249 0034 5569     		ldr	r5, [r2, #20]
 250 0036 0330     		add	r0, r0, #3
 251 0038 1C1C     		mov	r4, r3
 252              	.LVL29:
 253 003a 8440     		lsl	r4, r4, r0
 254 003c A543     		bic	r5, r4
 255 003e 5561     		str	r5, [r2, #20]
 189:../Dave/Generated/src/IO004/IO004.c ****     Handle->PortRegs->IOCR4 |=  (uint32_t)(((uint32_t)Mode & 0x1FUL) << (3U+(Pin*8U)));
 256              		.loc 1 189 0
 257 0040 5469     		ldr	r4, [r2, #20]
 258 0042 1940     		and	r1, r3
 259              	.LVL30:
 260 0044 8140     		lsl	r1, r1, r0
 261 0046 2143     		orr	r1, r4
 262 0048 5161     		str	r1, [r2, #20]
 263 004a 25E0     		b	.L10
 264              	.LVL31:
 265              	.L13:
 190:../Dave/Generated/src/IO004/IO004.c ****   } else if ((Pin >= 8U) && (Pin <= 11U))
 266              		.loc 1 190 0
 267 004c 1A1C     		mov	r2, r3
 268 004e 083A     		sub	r2, r2, #8
 269 0050 D4B2     		uxtb	r4, r2
 270 0052 032C     		cmp	r4, #3
 271 0054 0ED8     		bhi	.L14
 272              	.LVL32:
 191:../Dave/Generated/src/IO004/IO004.c ****   {
 192:../Dave/Generated/src/IO004/IO004.c ****     Pin = Pin - 8U;
 193:../Dave/Generated/src/IO004/IO004.c ****     Handle->PortRegs->IOCR8  =  (uint32_t)(Handle->PortRegs->IOCR8 & ~(0x0000001FUL << (3U+(Pin*8U)
 273              		.loc 1 193 0
 274 0056 4268     		ldr	r2, [r0, #4]
 275              	.LVL33:
 276 0058 1F23     		mov	r3, #31
 277 005a E000     		lsl	r0, r4, #3
 278              	.LVL34:
 279 005c 9569     		ldr	r5, [r2, #24]
 280 005e 0330     		add	r0, r0, #3
 281 0060 1C1C     		mov	r4, r3
 282              	.LVL35:
 283 0062 8440     		lsl	r4, r4, r0
 284 0064 A543     		bic	r5, r4
 285 0066 9561     		str	r5, [r2, #24]
 194:../Dave/Generated/src/IO004/IO004.c ****     Handle->PortRegs->IOCR8 |=  (uint32_t)(((uint32_t)Mode & 0x1FUL) << (3U+(Pin*8U)));
 286              		.loc 1 194 0
 287 0068 9469     		ldr	r4, [r2, #24]
 288 006a 1940     		and	r1, r3
 289              	.LVL36:
 290 006c 8140     		lsl	r1, r1, r0
 291 006e 2143     		orr	r1, r4
 292 0070 9161     		str	r1, [r2, #24]
 293 0072 11E0     		b	.L10
 294              	.LVL37:
 295              	.L14:
 195:../Dave/Generated/src/IO004/IO004.c ****   } else if ((Pin >= 12U) && (Pin <= 15U))
 296              		.loc 1 195 0
 297 0074 0C3B     		sub	r3, r3, #12
 298 0076 DDB2     		uxtb	r5, r3
 299 0078 032D     		cmp	r5, #3
 300 007a 0DD8     		bhi	.L10
 301              	.LVL38:
 196:../Dave/Generated/src/IO004/IO004.c ****   {
 197:../Dave/Generated/src/IO004/IO004.c ****     Pin = Pin - 12U;
 198:../Dave/Generated/src/IO004/IO004.c ****     Handle->PortRegs->IOCR12  =  (uint32_t)(Handle->PortRegs->IOCR12 & ~(0x0000001FUL << (3U+(Pin*8
 302              		.loc 1 198 0
 303 007c 4268     		ldr	r2, [r0, #4]
 304 007e EB00     		lsl	r3, r5, #3
 305              	.LVL39:
 306 0080 1F20     		mov	r0, #31
 307              	.LVL40:
 308 0082 D469     		ldr	r4, [r2, #28]
 309 0084 0333     		add	r3, r3, #3
 310 0086 051C     		mov	r5, r0
 311              	.LVL41:
 312 0088 9D40     		lsl	r5, r5, r3
 313 008a AC43     		bic	r4, r5
 314 008c D461     		str	r4, [r2, #28]
 199:../Dave/Generated/src/IO004/IO004.c ****     Handle->PortRegs->IOCR12 |=  (uint32_t)(((uint32_t)Mode & 0x1FUL) << (3U+(Pin*8U)));
 315              		.loc 1 199 0
 316 008e D469     		ldr	r4, [r2, #28]
 317 0090 0140     		and	r1, r0
 318              	.LVL42:
 319 0092 9940     		lsl	r1, r1, r3
 320 0094 2143     		orr	r1, r4
 321 0096 D161     		str	r1, [r2, #28]
 322              	.LVL43:
 323              	.L10:
 200:../Dave/Generated/src/IO004/IO004.c ****   }
 201:../Dave/Generated/src/IO004/IO004.c ****   else
 202:../Dave/Generated/src/IO004/IO004.c ****   {
 203:../Dave/Generated/src/IO004/IO004.c **** 	  /*Not supposed to be here */
 204:../Dave/Generated/src/IO004/IO004.c ****   }
 205:../Dave/Generated/src/IO004/IO004.c **** }
 324              		.loc 1 205 0
 325              		@ sp needed for prologue
 326 0098 30BD     		pop	{r4, r5, pc}
 327              		.cfi_endproc
 328              	.LFE40:
 330              		.text
 331              	.Letext0:
 332              		.file 2 "c:\\dave-3.1.10\\arm-gcc\\bin\\../lib/gcc/arm-none-eabi/4.7.4/../../../../arm-none-eabi/i
 333              		.file 3 "C:\\Users\\tomasoat\\Userdata\\AEPrograms\\DAVE3_workspace_32_DAVE3110\\RGB_LED_Shield_v5
 334              		.file 4 "C:\\Users\\tomasoat\\Userdata\\AEPrograms\\DAVE3_workspace_32_DAVE3110\\RGB_LED_Shield_v5