   1              		.cpu cortex-m0
   2              		.fpu softvfp
   3              		.eabi_attribute 20, 1
   4              		.eabi_attribute 21, 1
   5              		.eabi_attribute 23, 3
   6              		.eabi_attribute 24, 1
   7              		.eabi_attribute 25, 1
   8              		.eabi_attribute 26, 1
   9              		.eabi_attribute 30, 4
  10              		.eabi_attribute 34, 0
  11              		.eabi_attribute 18, 4
  12              		.code	16
  13              		.file	"MULTIPLEXER.c"
  14              		.text
  15              	.Ltext0:
  16              		.cfi_sections	.debug_frame
  17              		.section	.text.DAVE_MUX_Init,"ax",%progbits
  18              		.align	1
  19              		.global	DAVE_MUX_Init
  20              		.code	16
  21              		.thumb_func
  23              	DAVE_MUX_Init:
  24              	.LFB38:
  25              		.file 1 "../Dave/Generated/src/DAVESupport/MULTIPLEXER.c"
   1:../Dave/Generated/src/DAVESupport/MULTIPLEXER.c **** /*******************************************************************************
   2:../Dave/Generated/src/DAVESupport/MULTIPLEXER.c **** **  DAVE App Name : DAVESupport       App Version: 1.0.44               
   3:../Dave/Generated/src/DAVESupport/MULTIPLEXER.c **** **  This file is generated by DAVE, User modification to this file will be    **
   4:../Dave/Generated/src/DAVESupport/MULTIPLEXER.c **** **  overwritten at the next code generation.                                  **
   5:../Dave/Generated/src/DAVESupport/MULTIPLEXER.c **** *******************************************************************************/
   6:../Dave/Generated/src/DAVESupport/MULTIPLEXER.c **** 
   7:../Dave/Generated/src/DAVESupport/MULTIPLEXER.c **** 
   8:../Dave/Generated/src/DAVESupport/MULTIPLEXER.c **** /*******************************************************************************
   9:../Dave/Generated/src/DAVESupport/MULTIPLEXER.c ****  Copyright (c) 2014, Infineon Technologies AG                                 **
  10:../Dave/Generated/src/DAVESupport/MULTIPLEXER.c ****  All rights reserved.                                                         **
  11:../Dave/Generated/src/DAVESupport/MULTIPLEXER.c ****                                                                               **
  12:../Dave/Generated/src/DAVESupport/MULTIPLEXER.c ****  Redistribution and use in source and binary forms, with or without           **
  13:../Dave/Generated/src/DAVESupport/MULTIPLEXER.c ****  modification,are permitted provided that the following conditions are met:   **
  14:../Dave/Generated/src/DAVESupport/MULTIPLEXER.c ****                                                                               **
  15:../Dave/Generated/src/DAVESupport/MULTIPLEXER.c ****  *Redistributions of source code must retain the above copyright notice,      **
  16:../Dave/Generated/src/DAVESupport/MULTIPLEXER.c ****  this list of conditions and the following disclaimer.                        **
  17:../Dave/Generated/src/DAVESupport/MULTIPLEXER.c ****  *Redistributions in binary form must reproduce the above copyright notice,   **
  18:../Dave/Generated/src/DAVESupport/MULTIPLEXER.c ****  this list of conditions and the following disclaimer in the documentation    **
  19:../Dave/Generated/src/DAVESupport/MULTIPLEXER.c ****  and/or other materials provided with the distribution.                       **
  20:../Dave/Generated/src/DAVESupport/MULTIPLEXER.c ****  *Neither the name of the copyright holders nor the names of its contributors **
  21:../Dave/Generated/src/DAVESupport/MULTIPLEXER.c ****  may be used to endorse or promote products derived from this software without**
  22:../Dave/Generated/src/DAVESupport/MULTIPLEXER.c ****  specific prior written permission.                                           **
  23:../Dave/Generated/src/DAVESupport/MULTIPLEXER.c ****                                                                               **
  24:../Dave/Generated/src/DAVESupport/MULTIPLEXER.c ****  THIS SOFTWARE IS PROVIDED BY THE COPYRIGHT HOLDERS AND CONTRIBUTORS "AS IS"  **
  25:../Dave/Generated/src/DAVESupport/MULTIPLEXER.c ****  AND ANY EXPRESS OR IMPLIED WARRANTIES, INCLUDING, BUT NOT LIMITED TO, THE    **
  26:../Dave/Generated/src/DAVESupport/MULTIPLEXER.c ****  IMPLIED WARRANTIES OF MERCHANTABILITY AND FITNESS FOR A PARTICULAR PURPOSE   **
  27:../Dave/Generated/src/DAVESupport/MULTIPLEXER.c ****  ARE  DISCLAIMED. IN NO EVENT SHALL THE COPYRIGHT HOLDER OR CONTRIBUTORS BE   **
  28:../Dave/Generated/src/DAVESupport/MULTIPLEXER.c ****  LIABLE  FOR ANY DIRECT, INDIRECT, INCIDENTAL, SPECIAL, EXEMPLARY, OR         **
  29:../Dave/Generated/src/DAVESupport/MULTIPLEXER.c ****  CONSEQUENTIAL DAMAGES (INCLUDING, BUT NOT LIMITED TO, PROCUREMENT OF         **
  30:../Dave/Generated/src/DAVESupport/MULTIPLEXER.c ****  SUBSTITUTE GOODS OR  SERVICES; LOSS OF USE, DATA, OR PROFITS; OR BUSINESS    **
  31:../Dave/Generated/src/DAVESupport/MULTIPLEXER.c ****  INTERRUPTION) HOWEVER CAUSED AND ON ANY THEORY OF LIABILITY, WHETHER IN      **
  32:../Dave/Generated/src/DAVESupport/MULTIPLEXER.c ****  CONTRACT, STRICT LIABILITY,OR TORT (INCLUDING NEGLIGENCE OR OTHERWISE)       **
  33:../Dave/Generated/src/DAVESupport/MULTIPLEXER.c ****  ARISING IN ANY WAY OUT OF THE USE OF THIS SOFTWARE, EVEN IF ADVISED OF THE   **
  34:../Dave/Generated/src/DAVESupport/MULTIPLEXER.c ****  POSSIBILITY OF SUCH DAMAGE.                                                  **
  35:../Dave/Generated/src/DAVESupport/MULTIPLEXER.c ****                                                                               **
  36:../Dave/Generated/src/DAVESupport/MULTIPLEXER.c ****  To improve the quality of the software, users are encouraged to share        **
  37:../Dave/Generated/src/DAVESupport/MULTIPLEXER.c ****  modifications, enhancements or bug fixes with Infineon Technologies AG       **
  38:../Dave/Generated/src/DAVESupport/MULTIPLEXER.c ****  dave@infineon.com).                                                          **
  39:../Dave/Generated/src/DAVESupport/MULTIPLEXER.c ****                                                                               **
  40:../Dave/Generated/src/DAVESupport/MULTIPLEXER.c **** ********************************************************************************
  41:../Dave/Generated/src/DAVESupport/MULTIPLEXER.c **** **                                                                            **
  42:../Dave/Generated/src/DAVESupport/MULTIPLEXER.c **** **                                                                            **
  43:../Dave/Generated/src/DAVESupport/MULTIPLEXER.c **** ** PLATFORM : Infineon <Microcontroller name, step>                           **
  44:../Dave/Generated/src/DAVESupport/MULTIPLEXER.c **** **                                                                            **
  45:../Dave/Generated/src/DAVESupport/MULTIPLEXER.c **** ** COMPILER : Compiler Independent                                            **
  46:../Dave/Generated/src/DAVESupport/MULTIPLEXER.c **** **                                                                            **
  47:../Dave/Generated/src/DAVESupport/MULTIPLEXER.c **** ** MODIFICATION DATE : April 23, 2014                                     **
  48:../Dave/Generated/src/DAVESupport/MULTIPLEXER.c **** **                                                                            **
  49:../Dave/Generated/src/DAVESupport/MULTIPLEXER.c **** *******************************************************************************/
  50:../Dave/Generated/src/DAVESupport/MULTIPLEXER.c **** /**
  51:../Dave/Generated/src/DAVESupport/MULTIPLEXER.c ****  * @file  MULTIPLEXER.c
  52:../Dave/Generated/src/DAVESupport/MULTIPLEXER.c ****  *
  53:../Dave/Generated/src/DAVESupport/MULTIPLEXER.c ****  * @brief This file contains implementation of DAVE Support function which 
  54:../Dave/Generated/src/DAVESupport/MULTIPLEXER.c ****  * uses to configure multiplexer register values.
  55:../Dave/Generated/src/DAVESupport/MULTIPLEXER.c ****  * 24 July 2013 v1.0.34 Initial Version
  56:../Dave/Generated/src/DAVESupport/MULTIPLEXER.c ****  * 06 sep 2013 v1.0.36  UART001 : Mux : One instruction for output pins 
  57:../Dave/Generated/src/DAVESupport/MULTIPLEXER.c ****  *                      initialisation.
  58:../Dave/Generated/src/DAVESupport/MULTIPLEXER.c ****  *                      CAN001 & CAN002 : Avoid twice reset of the INIT bit in 
  59:../Dave/Generated/src/DAVESupport/MULTIPLEXER.c ****  *                      Can001_lNodeInit & DAVE_MUX_Init.
  60:../Dave/Generated/src/DAVESupport/MULTIPLEXER.c ****  *                      WR_REGHIB Macro definition has been changed.
  61:../Dave/Generated/src/DAVESupport/MULTIPLEXER.c ****  * 23 April 2014 v1.0.44 HRPWM MUX configuration supported.                      
  62:../Dave/Generated/src/DAVESupport/MULTIPLEXER.c ****  *                      
  63:../Dave/Generated/src/DAVESupport/MULTIPLEXER.c ****  */
  64:../Dave/Generated/src/DAVESupport/MULTIPLEXER.c **** 
  65:../Dave/Generated/src/DAVESupport/MULTIPLEXER.c **** /*******************************************************************************
  66:../Dave/Generated/src/DAVESupport/MULTIPLEXER.c **** **                      Include Files                                         **
  67:../Dave/Generated/src/DAVESupport/MULTIPLEXER.c **** *******************************************************************************/
  68:../Dave/Generated/src/DAVESupport/MULTIPLEXER.c **** #include "../../inc/DAVESupport/DAVE3.h"
  69:../Dave/Generated/src/DAVESupport/MULTIPLEXER.c **** 
  70:../Dave/Generated/src/DAVESupport/MULTIPLEXER.c **** /*******************************************************************************
  71:../Dave/Generated/src/DAVESupport/MULTIPLEXER.c **** **                 Function declarations                                     **
  72:../Dave/Generated/src/DAVESupport/MULTIPLEXER.c **** *******************************************************************************/
  73:../Dave/Generated/src/DAVESupport/MULTIPLEXER.c **** /*******************************************************************************
  74:../Dave/Generated/src/DAVESupport/MULTIPLEXER.c **** ** Syntax           : void DAVE_MUX_Init(void)                                **
  75:../Dave/Generated/src/DAVESupport/MULTIPLEXER.c **** **                                                                            **
  76:../Dave/Generated/src/DAVESupport/MULTIPLEXER.c **** ** Reentrancy       : None                                                    **
  77:../Dave/Generated/src/DAVESupport/MULTIPLEXER.c **** **                                                                            **
  78:../Dave/Generated/src/DAVESupport/MULTIPLEXER.c **** ** Parameters (in)  : void                                                    **
  79:../Dave/Generated/src/DAVESupport/MULTIPLEXER.c **** **                                                                            **
  80:../Dave/Generated/src/DAVESupport/MULTIPLEXER.c **** ** Parameters (out) : none                                                    **
  81:../Dave/Generated/src/DAVESupport/MULTIPLEXER.c **** **                                                                            **
  82:../Dave/Generated/src/DAVESupport/MULTIPLEXER.c **** ** Return value     : none                                                    **
  83:../Dave/Generated/src/DAVESupport/MULTIPLEXER.c **** **                                                                            **
  84:../Dave/Generated/src/DAVESupport/MULTIPLEXER.c **** ** Description      : This is the Mux configuration                           **
  85:../Dave/Generated/src/DAVESupport/MULTIPLEXER.c **** **                                                                            **
  86:../Dave/Generated/src/DAVESupport/MULTIPLEXER.c **** *******************************************************************************/
  87:../Dave/Generated/src/DAVESupport/MULTIPLEXER.c ****            
  88:../Dave/Generated/src/DAVESupport/MULTIPLEXER.c **** void DAVE_MUX_Init(void)
  89:../Dave/Generated/src/DAVESupport/MULTIPLEXER.c **** {  
  26              		.loc 1 89 0
  27              		.cfi_startproc
  28 0000 F0B5     		push	{r4, r5, r6, r7, lr}
  29              	.LCFI0:
  30              		.cfi_def_cfa_offset 20
  31              		.cfi_offset 4, -20
  32              		.cfi_offset 5, -16
  33              		.cfi_offset 6, -12
  34              		.cfi_offset 7, -8
  35              		.cfi_offset 14, -4
  90:../Dave/Generated/src/DAVESupport/MULTIPLEXER.c ****    	 
  91:../Dave/Generated/src/DAVESupport/MULTIPLEXER.c ****             	         
  92:../Dave/Generated/src/DAVESupport/MULTIPLEXER.c ****                                      
  93:../Dave/Generated/src/DAVESupport/MULTIPLEXER.c ****        /*        SCU Macro definitions     */                  
  94:../Dave/Generated/src/DAVESupport/MULTIPLEXER.c ****    	 
  95:../Dave/Generated/src/DAVESupport/MULTIPLEXER.c ****             	         
  96:../Dave/Generated/src/DAVESupport/MULTIPLEXER.c ****                                                      
  97:../Dave/Generated/src/DAVESupport/MULTIPLEXER.c ****    	 
  98:../Dave/Generated/src/DAVESupport/MULTIPLEXER.c ****       
  99:../Dave/Generated/src/DAVESupport/MULTIPLEXER.c **** //********* MODULE USIC CONFIGURATIONS *************************	        
 100:../Dave/Generated/src/DAVESupport/MULTIPLEXER.c ****         
 101:../Dave/Generated/src/DAVESupport/MULTIPLEXER.c ****            
 102:../Dave/Generated/src/DAVESupport/MULTIPLEXER.c ****    /* Disable mode before configuring all USIC registers to avoid unintended edges */   
 103:../Dave/Generated/src/DAVESupport/MULTIPLEXER.c ****       /* Variable to store the CCR_MODE values for various USIC channels */ 
 104:../Dave/Generated/src/DAVESupport/MULTIPLEXER.c ****       uint32_t UsicCcrMode[6] = {0};
 105:../Dave/Generated/src/DAVESupport/MULTIPLEXER.c ****            
 106:../Dave/Generated/src/DAVESupport/MULTIPLEXER.c ****     UsicCcrMode[0] |= (uint32_t) RD_REG(USIC0_CH0->CCR, USIC_CH_CCR_MODE_Msk, USIC_CH_CCR_MODE_Pos)
  36              		.loc 1 106 0
  37 0002 9021     		mov	r1, #144
  38 0004 C905     		lsl	r1, r1, #23
  39 0006 086C     		ldr	r0, [r1, #64]
 107:../Dave/Generated/src/DAVESupport/MULTIPLEXER.c ****     WR_REG(USIC0_CH0->CCR, USIC_CH_CCR_MODE_Msk, USIC_CH_CCR_MODE_Pos,0);  
  40              		.loc 1 107 0
  41 0008 0B6C     		ldr	r3, [r1, #64]
  42 000a 0F22     		mov	r2, #15
  89:../Dave/Generated/src/DAVESupport/MULTIPLEXER.c **** {  
  43              		.loc 1 89 0
  44 000c 85B0     		sub	sp, sp, #20
  45              	.LCFI1:
  46              		.cfi_def_cfa_offset 40
  47              		.loc 1 107 0
  48 000e 9343     		bic	r3, r2
 106:../Dave/Generated/src/DAVESupport/MULTIPLEXER.c ****     UsicCcrMode[0] |= (uint32_t) RD_REG(USIC0_CH0->CCR, USIC_CH_CCR_MODE_Msk, USIC_CH_CCR_MODE_Pos)
  49              		.loc 1 106 0
  50 0010 0290     		str	r0, [sp, #8]
  51              		.loc 1 107 0
  52 0012 0B64     		str	r3, [r1, #64]
 108:../Dave/Generated/src/DAVESupport/MULTIPLEXER.c ****                         
 109:../Dave/Generated/src/DAVESupport/MULTIPLEXER.c ****     UsicCcrMode[1] |= (uint32_t) RD_REG(USIC0_CH1->CCR, USIC_CH_CCR_MODE_Msk, USIC_CH_CCR_MODE_Pos)
  53              		.loc 1 109 0
  54 0014 724B     		ldr	r3, .L2
 110:../Dave/Generated/src/DAVESupport/MULTIPLEXER.c ****     WR_REG(USIC0_CH1->CCR, USIC_CH_CCR_MODE_Msk, USIC_CH_CCR_MODE_Pos,0);   
 111:../Dave/Generated/src/DAVESupport/MULTIPLEXER.c ****                  
 112:../Dave/Generated/src/DAVESupport/MULTIPLEXER.c ****       
 113:../Dave/Generated/src/DAVESupport/MULTIPLEXER.c ****     						
 114:../Dave/Generated/src/DAVESupport/MULTIPLEXER.c ****    /*USIC 0 Channel 0 Mux Related SFR/Bitfields Configurations*/ 						         
 115:../Dave/Generated/src/DAVESupport/MULTIPLEXER.c ****  WR_REG(USIC0_CH0->DX0CR, USIC_CH_DX0CR_DSEL_Msk, USIC_CH_DX0CR_DSEL_Pos,4); 
  55              		.loc 1 115 0
  56 0016 0426     		mov	r6, #4
 109:../Dave/Generated/src/DAVESupport/MULTIPLEXER.c ****     UsicCcrMode[1] |= (uint32_t) RD_REG(USIC0_CH1->CCR, USIC_CH_CCR_MODE_Msk, USIC_CH_CCR_MODE_Pos)
  57              		.loc 1 109 0
  58 0018 1C6C     		ldr	r4, [r3, #64]
 110:../Dave/Generated/src/DAVESupport/MULTIPLEXER.c ****     WR_REG(USIC0_CH1->CCR, USIC_CH_CCR_MODE_Msk, USIC_CH_CCR_MODE_Pos,0);   
  59              		.loc 1 110 0
  60 001a 1D6C     		ldr	r5, [r3, #64]
 109:../Dave/Generated/src/DAVESupport/MULTIPLEXER.c ****     UsicCcrMode[1] |= (uint32_t) RD_REG(USIC0_CH1->CCR, USIC_CH_CCR_MODE_Msk, USIC_CH_CCR_MODE_Pos)
  61              		.loc 1 109 0
  62 001c 0394     		str	r4, [sp, #12]
 110:../Dave/Generated/src/DAVESupport/MULTIPLEXER.c ****     WR_REG(USIC0_CH1->CCR, USIC_CH_CCR_MODE_Msk, USIC_CH_CCR_MODE_Pos,0);   
  63              		.loc 1 110 0
  64 001e 9543     		bic	r5, r2
  65 0020 1D64     		str	r5, [r3, #64]
  66              		.loc 1 115 0
  67 0022 CF69     		ldr	r7, [r1, #28]
  68 0024 0725     		mov	r5, #7
  69 0026 AF43     		bic	r7, r5
  70 0028 3743     		orr	r7, r6
 116:../Dave/Generated/src/DAVESupport/MULTIPLEXER.c ****   			  					 				 				 		       				              				  					    					 					   				  					 				 			
 117:../Dave/Generated/src/DAVESupport/MULTIPLEXER.c ****  //Standard receive buffer event is enabled.                 
 118:../Dave/Generated/src/DAVESupport/MULTIPLEXER.c ****  WR_REG(USIC0_CH0->RBCTR, USIC_CH_RBCTR_SRBIEN_Msk, USIC_CH_RBCTR_SRBIEN_Pos,1);  
  71              		.loc 1 118 0
  72 002a 081C     		mov	r0, r1
 115:../Dave/Generated/src/DAVESupport/MULTIPLEXER.c ****  WR_REG(USIC0_CH0->DX0CR, USIC_CH_DX0CR_DSEL_Msk, USIC_CH_DX0CR_DSEL_Pos,4); 
  73              		.loc 1 115 0
  74 002c CF61     		str	r7, [r1, #28]
  75              		.loc 1 118 0
  76 002e FC30     		add	r0, r0, #252
  77 0030 0469     		ldr	r4, [r0, #16]
  78 0032 8027     		mov	r7, #128
  79 0034 FE05     		lsl	r6, r7, #23
  80 0036 3443     		orr	r4, r6
  81 0038 0461     		str	r4, [r0, #16]
 119:../Dave/Generated/src/DAVESupport/MULTIPLEXER.c ****  					 									 					 					  									      					              					  						    					      
 120:../Dave/Generated/src/DAVESupport/MULTIPLEXER.c ****                  
 121:../Dave/Generated/src/DAVESupport/MULTIPLEXER.c ****    // Data Pointer & Buffer Size for Transmitter Buffer Control  
 122:../Dave/Generated/src/DAVESupport/MULTIPLEXER.c ****  WR_REG(USIC0_CH0->TBCTR, USIC_CH_TBCTR_DPTRSIZE_Msk, USIC_CH_TBCTR_DPTRSIZE_Pos,0x01000006);		/*  
  82              		.loc 1 122 0
  83 003a C768     		ldr	r7, [r0, #12]
  84 003c 694C     		ldr	r4, .L2+4
  85 003e 6A4E     		ldr	r6, .L2+8
  86 0040 2740     		and	r7, r4
  87 0042 3743     		orr	r7, r6
  88 0044 C760     		str	r7, [r0, #12]
 123:../Dave/Generated/src/DAVESupport/MULTIPLEXER.c ****            
 124:../Dave/Generated/src/DAVESupport/MULTIPLEXER.c ****   // Data Pointer & Buffer Size for Receiver Buffer Control  
 125:../Dave/Generated/src/DAVESupport/MULTIPLEXER.c ****  WR_REG(USIC0_CH0->RBCTR, USIC_CH_RBCTR_DPTRSIZE_Msk, USIC_CH_RBCTR_DPTRSIZE_Pos,0x01000004);		/*  
  89              		.loc 1 125 0
  90 0046 0769     		ldr	r7, [r0, #16]
  91 0048 2740     		and	r7, r4
  92 004a 0197     		str	r7, [sp, #4]
  93 004c 019E     		ldr	r6, [sp, #4]
  94 004e 674F     		ldr	r7, .L2+12
  95 0050 3E43     		orr	r6, r7
  96 0052 0661     		str	r6, [r0, #16]
 126:../Dave/Generated/src/DAVESupport/MULTIPLEXER.c ****  						
 127:../Dave/Generated/src/DAVESupport/MULTIPLEXER.c ****    /*USIC 0 Channel 1 Mux Related SFR/Bitfields Configurations*/ 						         
 128:../Dave/Generated/src/DAVESupport/MULTIPLEXER.c ****  WR_REG(USIC0_CH1->DX0CR, USIC_CH_DX0CR_DSEL_Msk, USIC_CH_DX0CR_DSEL_Pos,5); 
  97              		.loc 1 128 0
  98 0054 D869     		ldr	r0, [r3, #28]
  99 0056 0527     		mov	r7, #5
 100 0058 A843     		bic	r0, r5
 101 005a 3843     		orr	r0, r7
 102 005c D861     		str	r0, [r3, #28]
 129:../Dave/Generated/src/DAVESupport/MULTIPLEXER.c ****   			                  
 130:../Dave/Generated/src/DAVESupport/MULTIPLEXER.c ****  WR_REG(USIC0_CH1->DX1CR, USIC_CH_DX1CR_DSEL_Msk, USIC_CH_DX1CR_DSEL_Pos,4);  
 103              		.loc 1 130 0
 104 005e 1E6A     		ldr	r6, [r3, #32]
 131:../Dave/Generated/src/DAVESupport/MULTIPLEXER.c ****   					 				 				 		       				              				  					    					 					   				  					 				 				    
 132:../Dave/Generated/src/DAVESupport/MULTIPLEXER.c ****  //Standard receive buffer event is enabled.                 
 133:../Dave/Generated/src/DAVESupport/MULTIPLEXER.c ****  WR_REG(USIC0_CH1->RBCTR, USIC_CH_RBCTR_SRBIEN_Msk, USIC_CH_RBCTR_SRBIEN_Pos,1);  
 105              		.loc 1 133 0
 106 0060 181C     		mov	r0, r3
 130:../Dave/Generated/src/DAVESupport/MULTIPLEXER.c ****  WR_REG(USIC0_CH1->DX1CR, USIC_CH_DX1CR_DSEL_Msk, USIC_CH_DX1CR_DSEL_Pos,4);  
 107              		.loc 1 130 0
 108 0062 AE43     		bic	r6, r5
 109 0064 0425     		mov	r5, #4
 110 0066 2E43     		orr	r6, r5
 111 0068 1E62     		str	r6, [r3, #32]
 112              		.loc 1 133 0
 113 006a FC30     		add	r0, r0, #252
 114 006c 0769     		ldr	r7, [r0, #16]
 115 006e 8026     		mov	r6, #128
 116 0070 F505     		lsl	r5, r6, #23
 117 0072 3D43     		orr	r5, r7
 118 0074 0561     		str	r5, [r0, #16]
 134:../Dave/Generated/src/DAVESupport/MULTIPLEXER.c ****  					 									 					 					  									         
 135:../Dave/Generated/src/DAVESupport/MULTIPLEXER.c ****  //Interrupt node 2 is selected for Protocol specific event             
 136:../Dave/Generated/src/DAVESupport/MULTIPLEXER.c ****  WR_REG(USIC0_CH1->INPR, USIC_CH_INPR_PINP_Msk, USIC_CH_INPR_PINP_Pos,2);  
 119              		.loc 1 136 0
 120 0076 9E69     		ldr	r6, [r3, #24]
 121 0078 5D4D     		ldr	r5, .L2+16
 122 007a 8027     		mov	r7, #128
 123 007c 2E40     		and	r6, r5
 124 007e BF02     		lsl	r7, r7, #10
 125 0080 3E43     		orr	r6, r7
 126 0082 9E61     		str	r6, [r3, #24]
 137:../Dave/Generated/src/DAVESupport/MULTIPLEXER.c ****  					              					  						       
 138:../Dave/Generated/src/DAVESupport/MULTIPLEXER.c ****  //Interrupt node 1 is selected for Standard receive buffer event                 
 139:../Dave/Generated/src/DAVESupport/MULTIPLEXER.c ****  WR_REG(USIC0_CH1->RBCTR, USIC_CH_RBCTR_SRBINP_Msk, USIC_CH_RBCTR_SRBINP_Pos,1);  
 127              		.loc 1 139 0
 128 0084 0669     		ldr	r6, [r0, #16]
 129 0086 8027     		mov	r7, #128
 130 0088 3540     		and	r5, r6
 131 008a 7E02     		lsl	r6, r7, #9
 132 008c 3543     		orr	r5, r6
 133 008e 0561     		str	r5, [r0, #16]
 140:../Dave/Generated/src/DAVESupport/MULTIPLEXER.c ****  					      
 141:../Dave/Generated/src/DAVESupport/MULTIPLEXER.c ****                  
 142:../Dave/Generated/src/DAVESupport/MULTIPLEXER.c ****    // Data Pointer & Buffer Size for Transmitter Buffer Control  
 143:../Dave/Generated/src/DAVESupport/MULTIPLEXER.c ****  WR_REG(USIC0_CH1->TBCTR, USIC_CH_TBCTR_DPTRSIZE_Msk, USIC_CH_TBCTR_DPTRSIZE_Pos,0x01000002);		/*  
 134              		.loc 1 143 0
 135 0090 C568     		ldr	r5, [r0, #12]
 136 0092 584F     		ldr	r7, .L2+20
 137 0094 2540     		and	r5, r4
 138 0096 3D43     		orr	r5, r7
 139 0098 C560     		str	r5, [r0, #12]
 144:../Dave/Generated/src/DAVESupport/MULTIPLEXER.c ****          
 145:../Dave/Generated/src/DAVESupport/MULTIPLEXER.c ****   // Data Pointer & Buffer Size for Receiver Buffer Control  
 146:../Dave/Generated/src/DAVESupport/MULTIPLEXER.c ****  WR_REG(USIC0_CH1->RBCTR, USIC_CH_RBCTR_DPTRSIZE_Msk, USIC_CH_RBCTR_DPTRSIZE_Pos,0x01000000);		/*  
 140              		.loc 1 146 0
 141 009a 0669     		ldr	r6, [r0, #16]
 142 009c 8025     		mov	r5, #128
 143 009e 6F04     		lsl	r7, r5, #17
 144 00a0 3440     		and	r4, r6
 145 00a2 3C43     		orr	r4, r7
 146 00a4 0461     		str	r4, [r0, #16]
 147:../Dave/Generated/src/DAVESupport/MULTIPLEXER.c ****    						
 148:../Dave/Generated/src/DAVESupport/MULTIPLEXER.c ****    /*USIC 1 Channel 0 Mux Related SFR/Bitfields Configurations*/ 									  					 				 				 		     
 149:../Dave/Generated/src/DAVESupport/MULTIPLEXER.c ****        						
 150:../Dave/Generated/src/DAVESupport/MULTIPLEXER.c ****    /*USIC 1 Channel 1 Mux Related SFR/Bitfields Configurations*/ 									  					 				 				 		     
 151:../Dave/Generated/src/DAVESupport/MULTIPLEXER.c ****          						
 152:../Dave/Generated/src/DAVESupport/MULTIPLEXER.c ****    /*USIC 2 Channel 0 Mux Related SFR/Bitfields Configurations*/ 									  					 				 				 		     
 153:../Dave/Generated/src/DAVESupport/MULTIPLEXER.c ****        						
 154:../Dave/Generated/src/DAVESupport/MULTIPLEXER.c ****    /*USIC 2 Channel 1 Mux Related SFR/Bitfields Configurations*/ 									  					 				 				 		     
 155:../Dave/Generated/src/DAVESupport/MULTIPLEXER.c ****          
 156:../Dave/Generated/src/DAVESupport/MULTIPLEXER.c ****   
 157:../Dave/Generated/src/DAVESupport/MULTIPLEXER.c ****   /* Enable mode after configuring all USIC registers to avoid unintended edges */  
 158:../Dave/Generated/src/DAVESupport/MULTIPLEXER.c ****             
 159:../Dave/Generated/src/DAVESupport/MULTIPLEXER.c ****    WR_REG(USIC0_CH0->CCR, USIC_CH_CCR_MODE_Msk, USIC_CH_CCR_MODE_Pos,UsicCcrMode[0]); 
 147              		.loc 1 159 0
 148 00a6 086C     		ldr	r0, [r1, #64]
 149 00a8 029C     		ldr	r4, [sp, #8]
 150 00aa 9043     		bic	r0, r2
 151 00ac 1440     		and	r4, r2
 152 00ae 2043     		orr	r0, r4
 153 00b0 0864     		str	r0, [r1, #64]
 160:../Dave/Generated/src/DAVESupport/MULTIPLEXER.c ****          
 161:../Dave/Generated/src/DAVESupport/MULTIPLEXER.c ****    WR_REG(USIC0_CH1->CCR, USIC_CH_CCR_MODE_Msk, USIC_CH_CCR_MODE_Pos,UsicCcrMode[1]);   
 154              		.loc 1 161 0
 155 00b2 196C     		ldr	r1, [r3, #64]
 156 00b4 039E     		ldr	r6, [sp, #12]
 157 00b6 9143     		bic	r1, r2
 158 00b8 1640     		and	r6, r2
 159 00ba 3143     		orr	r1, r6
 160 00bc 1964     		str	r1, [r3, #64]
 162:../Dave/Generated/src/DAVESupport/MULTIPLEXER.c ****                        	         
 163:../Dave/Generated/src/DAVESupport/MULTIPLEXER.c ****                                                      
 164:../Dave/Generated/src/DAVESupport/MULTIPLEXER.c ****         //********* Capture/Compare Unit 4 (CAPCOM4) CONFIGURATIONS ************************* 
 165:../Dave/Generated/src/DAVESupport/MULTIPLEXER.c ****                        
 166:../Dave/Generated/src/DAVESupport/MULTIPLEXER.c ****     // Configuring CCU40 CC41INS - Input Selector Configuration
 167:../Dave/Generated/src/DAVESupport/MULTIPLEXER.c **** 
 168:../Dave/Generated/src/DAVESupport/MULTIPLEXER.c ****     WR_REG(CCU40_CC41->INS, CCU4_CC4_INS_EV0IS_Msk, CCU4_CC4_INS_EV0IS_Pos, CCU4xINyB);            
 161              		.loc 1 168 0
 162 00be 4E4B     		ldr	r3, .L2+24
 163 00c0 0127     		mov	r7, #1
 164 00c2 1D68     		ldr	r5, [r3]
 169:../Dave/Generated/src/DAVESupport/MULTIPLEXER.c **** 
 170:../Dave/Generated/src/DAVESupport/MULTIPLEXER.c ****     WR_REG(CCU40_CC41->INS, CCU4_CC4_INS_EV1IS_Msk, CCU4_CC4_INS_EV1IS_Pos, CCU4xINyB);            
 165              		.loc 1 170 0
 166 00c4 F020     		mov	r0, #240
 168:../Dave/Generated/src/DAVESupport/MULTIPLEXER.c ****     WR_REG(CCU40_CC41->INS, CCU4_CC4_INS_EV0IS_Msk, CCU4_CC4_INS_EV0IS_Pos, CCU4xINyB);            
 167              		.loc 1 168 0
 168 00c6 9543     		bic	r5, r2
 169 00c8 3D43     		orr	r5, r7
 170 00ca 1D60     		str	r5, [r3]
 171              		.loc 1 170 0
 172 00cc 1C68     		ldr	r4, [r3]
 173 00ce 1021     		mov	r1, #16
 174 00d0 8443     		bic	r4, r0
 171:../Dave/Generated/src/DAVESupport/MULTIPLEXER.c ****                        
 172:../Dave/Generated/src/DAVESupport/MULTIPLEXER.c ****     // Configuring CCU40 CC42INS - Input Selector Configuration
 173:../Dave/Generated/src/DAVESupport/MULTIPLEXER.c **** 
 174:../Dave/Generated/src/DAVESupport/MULTIPLEXER.c ****     WR_REG(CCU40_CC42->INS, CCU4_CC4_INS_EV0IS_Msk, CCU4_CC4_INS_EV0IS_Pos, CCU4xINyB);            
 175              		.loc 1 174 0
 176 00d2 4A4E     		ldr	r6, .L2+28
 170:../Dave/Generated/src/DAVESupport/MULTIPLEXER.c ****     WR_REG(CCU40_CC41->INS, CCU4_CC4_INS_EV1IS_Msk, CCU4_CC4_INS_EV1IS_Pos, CCU4xINyB);            
 177              		.loc 1 170 0
 178 00d4 0C43     		orr	r4, r1
 179 00d6 1C60     		str	r4, [r3]
 180              		.loc 1 174 0
 181 00d8 3368     		ldr	r3, [r6]
 175:../Dave/Generated/src/DAVESupport/MULTIPLEXER.c **** 
 176:../Dave/Generated/src/DAVESupport/MULTIPLEXER.c ****     WR_REG(CCU40_CC42->INS, CCU4_CC4_INS_EV1IS_Msk, CCU4_CC4_INS_EV1IS_Pos, CCU4xINyB);            
 177:../Dave/Generated/src/DAVESupport/MULTIPLEXER.c ****                        
 178:../Dave/Generated/src/DAVESupport/MULTIPLEXER.c ****     // Configuring CCU40 CC43INS - Input Selector Configuration
 179:../Dave/Generated/src/DAVESupport/MULTIPLEXER.c **** 
 180:../Dave/Generated/src/DAVESupport/MULTIPLEXER.c ****     WR_REG(CCU40_CC43->INS, CCU4_CC4_INS_EV0IS_Msk, CCU4_CC4_INS_EV0IS_Pos, CCU4xINyB);            
 182              		.loc 1 180 0
 183 00da 494C     		ldr	r4, .L2+32
 174:../Dave/Generated/src/DAVESupport/MULTIPLEXER.c ****     WR_REG(CCU40_CC42->INS, CCU4_CC4_INS_EV0IS_Msk, CCU4_CC4_INS_EV0IS_Pos, CCU4xINyB);            
 184              		.loc 1 174 0
 185 00dc 9343     		bic	r3, r2
 186 00de 3B43     		orr	r3, r7
 187 00e0 3360     		str	r3, [r6]
 176:../Dave/Generated/src/DAVESupport/MULTIPLEXER.c ****     WR_REG(CCU40_CC42->INS, CCU4_CC4_INS_EV1IS_Msk, CCU4_CC4_INS_EV1IS_Pos, CCU4xINyB);            
 188              		.loc 1 176 0
 189 00e2 3568     		ldr	r5, [r6]
 181:../Dave/Generated/src/DAVESupport/MULTIPLEXER.c **** 
 182:../Dave/Generated/src/DAVESupport/MULTIPLEXER.c ****     WR_REG(CCU40_CC43->INS, CCU4_CC4_INS_EV1IS_Msk, CCU4_CC4_INS_EV1IS_Pos, CCU4xINyB);            
 183:../Dave/Generated/src/DAVESupport/MULTIPLEXER.c ****    	 
 184:../Dave/Generated/src/DAVESupport/MULTIPLEXER.c ****             	         
 185:../Dave/Generated/src/DAVESupport/MULTIPLEXER.c ****                                                      
 186:../Dave/Generated/src/DAVESupport/MULTIPLEXER.c ****    	 
 187:../Dave/Generated/src/DAVESupport/MULTIPLEXER.c ****             	         
 188:../Dave/Generated/src/DAVESupport/MULTIPLEXER.c ****                                                      
 189:../Dave/Generated/src/DAVESupport/MULTIPLEXER.c ****    	 
 190:../Dave/Generated/src/DAVESupport/MULTIPLEXER.c ****             	         
 191:../Dave/Generated/src/DAVESupport/MULTIPLEXER.c ****                                                  
 192:../Dave/Generated/src/DAVESupport/MULTIPLEXER.c **** 
 193:../Dave/Generated/src/DAVESupport/MULTIPLEXER.c **** /*        PORT Macro definitions for IOCR_OE, IOCR_PCR & HWSEL_HW     */                           
 194:../Dave/Generated/src/DAVESupport/MULTIPLEXER.c ****   WR_REG(PORT0->IOCR0, PORT_IOCR_PC0_OE_Msk, PORT_IOCR_PC0_OE_Pos, PORT_IOCR_OE1);                /
 190              		.loc 1 194 0
 191 00e4 474B     		ldr	r3, .L2+36
 176:../Dave/Generated/src/DAVESupport/MULTIPLEXER.c ****     WR_REG(CCU40_CC42->INS, CCU4_CC4_INS_EV1IS_Msk, CCU4_CC4_INS_EV1IS_Pos, CCU4xINyB);            
 192              		.loc 1 176 0
 193 00e6 8543     		bic	r5, r0
 194 00e8 0D43     		orr	r5, r1
 195 00ea 3560     		str	r5, [r6]
 180:../Dave/Generated/src/DAVESupport/MULTIPLEXER.c ****     WR_REG(CCU40_CC43->INS, CCU4_CC4_INS_EV0IS_Msk, CCU4_CC4_INS_EV0IS_Pos, CCU4xINyB);            
 196              		.loc 1 180 0
 197 00ec 2668     		ldr	r6, [r4]
 198 00ee 9643     		bic	r6, r2
 199 00f0 3743     		orr	r7, r6
 200 00f2 2760     		str	r7, [r4]
 182:../Dave/Generated/src/DAVESupport/MULTIPLEXER.c ****     WR_REG(CCU40_CC43->INS, CCU4_CC4_INS_EV1IS_Msk, CCU4_CC4_INS_EV1IS_Pos, CCU4xINyB);            
 201              		.loc 1 182 0
 202 00f4 2768     		ldr	r7, [r4]
 195:../Dave/Generated/src/DAVESupport/MULTIPLEXER.c **** 					                         
 196:../Dave/Generated/src/DAVESupport/MULTIPLEXER.c ****   WR_REG(PORT0->IOCR4, 0xb8U, PORT_IOCR_PC0_PCR_Pos, 0x11U);                /*P0.4 : PORT0_IOCR4_PC
 197:../Dave/Generated/src/DAVESupport/MULTIPLEXER.c **** 					                         
 198:../Dave/Generated/src/DAVESupport/MULTIPLEXER.c ****   WR_REG(PORT0->IOCR4, 0xb800U, PORT_IOCR_PC1_PCR_Pos, 0x16U);                /*P0.5 : PORT0_IOCR4_
 203              		.loc 1 198 0
 204 00f6 B022     		mov	r2, #176
 182:../Dave/Generated/src/DAVESupport/MULTIPLEXER.c ****     WR_REG(CCU40_CC43->INS, CCU4_CC4_INS_EV1IS_Msk, CCU4_CC4_INS_EV1IS_Pos, CCU4xINyB);            
 205              		.loc 1 182 0
 206 00f8 8743     		bic	r7, r0
 207 00fa 3943     		orr	r1, r7
 208 00fc 2160     		str	r1, [r4]
 194:../Dave/Generated/src/DAVESupport/MULTIPLEXER.c ****   WR_REG(PORT0->IOCR0, PORT_IOCR_PC0_OE_Msk, PORT_IOCR_PC0_OE_Pos, PORT_IOCR_OE1);                /
 209              		.loc 1 194 0
 210 00fe 1869     		ldr	r0, [r3, #16]
 211 0100 8021     		mov	r1, #128
 212 0102 0843     		orr	r0, r1
 213 0104 1861     		str	r0, [r3, #16]
 196:../Dave/Generated/src/DAVESupport/MULTIPLEXER.c ****   WR_REG(PORT0->IOCR4, 0xb8U, PORT_IOCR_PC0_PCR_Pos, 0x11U);                /*P0.4 : PORT0_IOCR4_PC
 214              		.loc 1 196 0
 215 0106 5D69     		ldr	r5, [r3, #20]
 216 0108 B827     		mov	r7, #184
 217 010a 8824     		mov	r4, #136
 218 010c BD43     		bic	r5, r7
 219 010e 2543     		orr	r5, r4
 220 0110 5D61     		str	r5, [r3, #20]
 221              		.loc 1 198 0
 222 0112 5E69     		ldr	r6, [r3, #20]
 223 0114 3C48     		ldr	r0, .L2+40
 224 0116 1102     		lsl	r1, r2, #8
 225 0118 0640     		and	r6, r0
 226 011a 0E43     		orr	r6, r1
 227 011c 5E61     		str	r6, [r3, #20]
 199:../Dave/Generated/src/DAVESupport/MULTIPLEXER.c **** 					                         
 200:../Dave/Generated/src/DAVESupport/MULTIPLEXER.c ****   WR_REG(PORT0->IOCR4, 0xb80000U, PORT_IOCR_PC2_PCR_Pos, 0x11U);                /*P0.6 : PORT0_IOCR
 228              		.loc 1 200 0
 229 011e 5D69     		ldr	r5, [r3, #20]
 230 0120 3A4A     		ldr	r2, .L2+44
 231 0122 2104     		lsl	r1, r4, #16
 232 0124 1540     		and	r5, r2
 233 0126 0D43     		orr	r5, r1
 234 0128 5D61     		str	r5, [r3, #20]
 201:../Dave/Generated/src/DAVESupport/MULTIPLEXER.c **** 					                         
 202:../Dave/Generated/src/DAVESupport/MULTIPLEXER.c ****   WR_REG(PORT0->IOCR8, 0xb80000U, PORT_IOCR_PC2_PCR_Pos, 0x14U);                /*P0.10 : PORT0_IOC
 235              		.loc 1 202 0
 236 012a 9D69     		ldr	r5, [r3, #24]
 237 012c A026     		mov	r6, #160
 238 012e 3104     		lsl	r1, r6, #16
 239 0130 1540     		and	r5, r2
 240 0132 0D43     		orr	r5, r1
 241 0134 9D61     		str	r5, [r3, #24]
 203:../Dave/Generated/src/DAVESupport/MULTIPLEXER.c **** 					                         
 204:../Dave/Generated/src/DAVESupport/MULTIPLEXER.c ****   WR_REG(PORT0->IOCR12, 0xb8U, PORT_IOCR_PC0_PCR_Pos, 0x11U);                /*P0.12 : PORT0_IOCR12
 242              		.loc 1 204 0
 243 0136 DD69     		ldr	r5, [r3, #28]
 244 0138 BD43     		bic	r5, r7
 245 013a 2C43     		orr	r4, r5
 246 013c DC61     		str	r4, [r3, #28]
 205:../Dave/Generated/src/DAVESupport/MULTIPLEXER.c **** 					                         
 206:../Dave/Generated/src/DAVESupport/MULTIPLEXER.c ****   WR_REG(PORT0->IOCR12, PORT_IOCR_PC1_OE_Msk, PORT_IOCR_PC1_OE_Pos, PORT_IOCR_OE1);                
 247              		.loc 1 206 0
 248 013e DE69     		ldr	r6, [r3, #28]
 249 0140 8024     		mov	r4, #128
 250 0142 2102     		lsl	r1, r4, #8
 251 0144 3143     		orr	r1, r6
 252 0146 D961     		str	r1, [r3, #28]
 207:../Dave/Generated/src/DAVESupport/MULTIPLEXER.c **** 					                         
 208:../Dave/Generated/src/DAVESupport/MULTIPLEXER.c ****   WR_REG(PORT1->IOCR0, 0xb8U, PORT_IOCR_PC0_PCR_Pos, 0x16U);                /*P1.0 : PORT1_IOCR0_PC
 253              		.loc 1 208 0
 254 0148 314B     		ldr	r3, .L2+48
 255 014a B026     		mov	r6, #176
 256 014c 1D69     		ldr	r5, [r3, #16]
 209:../Dave/Generated/src/DAVESupport/MULTIPLEXER.c **** 					                         
 210:../Dave/Generated/src/DAVESupport/MULTIPLEXER.c ****   WR_REG(PORT1->IOCR0, 0xb800U, PORT_IOCR_PC1_PCR_Pos, 0x12U);                /*P1.1 : PORT1_IOCR0_
 257              		.loc 1 210 0
 258 014e 9021     		mov	r1, #144
 208:../Dave/Generated/src/DAVESupport/MULTIPLEXER.c ****   WR_REG(PORT1->IOCR0, 0xb8U, PORT_IOCR_PC0_PCR_Pos, 0x16U);                /*P1.0 : PORT1_IOCR0_PC
 259              		.loc 1 208 0
 260 0150 BD43     		bic	r5, r7
 261 0152 2F1C     		mov	r7, r5
 262 0154 3743     		orr	r7, r6
 263 0156 1F61     		str	r7, [r3, #16]
 264              		.loc 1 210 0
 265 0158 1C69     		ldr	r4, [r3, #16]
 266 015a 0D02     		lsl	r5, r1, #8
 267 015c 2040     		and	r0, r4
 268 015e 2843     		orr	r0, r5
 269 0160 1861     		str	r0, [r3, #16]
 211:../Dave/Generated/src/DAVESupport/MULTIPLEXER.c **** 					                         
 212:../Dave/Generated/src/DAVESupport/MULTIPLEXER.c ****   WR_REG(PORT1->IOCR0, 0xb80000U, PORT_IOCR_PC2_PCR_Pos, 0x12U);                /*P1.2 : PORT1_IOCR
 270              		.loc 1 212 0
 271 0162 1869     		ldr	r0, [r3, #16]
 272 0164 9027     		mov	r7, #144
 273 0166 3C04     		lsl	r4, r7, #16
 274 0168 0240     		and	r2, r0
 275 016a 2243     		orr	r2, r4
 276 016c 1A61     		str	r2, [r3, #16]
 213:../Dave/Generated/src/DAVESupport/MULTIPLEXER.c **** 					                         
 214:../Dave/Generated/src/DAVESupport/MULTIPLEXER.c ****   WR_REG(PORT1->IOCR0, 0xb8000000U, PORT_IOCR_PC3_PCR_Pos, 0x12U);                /*P1.3 : PORT1_IO
 277              		.loc 1 214 0
 278 016e 1969     		ldr	r1, [r3, #16]
 279 0170 284A     		ldr	r2, .L2+52
 280 0172 9025     		mov	r5, #144
 281 0174 2806     		lsl	r0, r5, #24
 282 0176 1140     		and	r1, r2
 283 0178 0143     		orr	r1, r0
 284 017a 1961     		str	r1, [r3, #16]
 215:../Dave/Generated/src/DAVESupport/MULTIPLEXER.c **** 					  
 216:../Dave/Generated/src/DAVESupport/MULTIPLEXER.c ****            
 217:../Dave/Generated/src/DAVESupport/MULTIPLEXER.c ****   WR_REG(PORT2->PDISC, PORT2_PDISC_PDIS10_Msk, PORT2_PDISC_PDIS10_Pos, PORT_PDISC_PDIS0);          
 285              		.loc 1 217 0
 286 017c 264B     		ldr	r3, .L2+56
 287 017e 274C     		ldr	r4, .L2+60
 288 0180 1F6E     		ldr	r7, [r3, #96]
 218:../Dave/Generated/src/DAVESupport/MULTIPLEXER.c ****   WR_REG(PORT2->IOCR8, 0xb80000U, PORT_IOCR_PC2_PCR_Pos, 0x17U);                /*P2.10 : PORT2_IOC
 289              		.loc 1 218 0
 290 0182 B821     		mov	r1, #184
 217:../Dave/Generated/src/DAVESupport/MULTIPLEXER.c ****   WR_REG(PORT2->PDISC, PORT2_PDISC_PDIS10_Msk, PORT2_PDISC_PDIS10_Pos, PORT_PDISC_PDIS0);          
 291              		.loc 1 217 0
 292 0184 3C40     		and	r4, r7
 293 0186 1C66     		str	r4, [r3, #96]
 294              		.loc 1 218 0
 295 0188 9D69     		ldr	r5, [r3, #24]
 296 018a 0804     		lsl	r0, r1, #16
 297 018c 2843     		orr	r0, r5
 298 018e 9861     		str	r0, [r3, #24]
 219:../Dave/Generated/src/DAVESupport/MULTIPLEXER.c **** 					  
 220:../Dave/Generated/src/DAVESupport/MULTIPLEXER.c ****            
 221:../Dave/Generated/src/DAVESupport/MULTIPLEXER.c ****   WR_REG(PORT2->PDISC, PORT2_PDISC_PDIS11_Msk, PORT2_PDISC_PDIS11_Pos, PORT_PDISC_PDIS0);          
 299              		.loc 1 221 0
 300 0190 1F6E     		ldr	r7, [r3, #96]
 301 0192 234C     		ldr	r4, .L2+64
 222:../Dave/Generated/src/DAVESupport/MULTIPLEXER.c ****   WR_REG(PORT2->IOCR8, 0xb8000000U, PORT_IOCR_PC3_PCR_Pos, 0x16U);                /*P2.11 : PORT2_I
 302              		.loc 1 222 0
 303 0194 3106     		lsl	r1, r6, #24
 221:../Dave/Generated/src/DAVESupport/MULTIPLEXER.c ****   WR_REG(PORT2->PDISC, PORT2_PDISC_PDIS11_Msk, PORT2_PDISC_PDIS11_Pos, PORT_PDISC_PDIS0);          
 304              		.loc 1 221 0
 305 0196 3C40     		and	r4, r7
 306 0198 1C66     		str	r4, [r3, #96]
 307              		.loc 1 222 0
 308 019a 9D69     		ldr	r5, [r3, #24]
 223:../Dave/Generated/src/DAVESupport/MULTIPLEXER.c **** 					      
 224:../Dave/Generated/src/DAVESupport/MULTIPLEXER.c ****    	 
 225:../Dave/Generated/src/DAVESupport/MULTIPLEXER.c ****             	         
 226:../Dave/Generated/src/DAVESupport/MULTIPLEXER.c ****                                              
 227:../Dave/Generated/src/DAVESupport/MULTIPLEXER.c **** /*        BCCU Macro definitions:         */ 
 228:../Dave/Generated/src/DAVESupport/MULTIPLEXER.c **** 
 229:../Dave/Generated/src/DAVESupport/MULTIPLEXER.c ****   WR_REG(BCCU0_CH0->CHCONFIG, BCCU_CH_CHCONFIG_DSEL_Msk, BCCU_CH_CHCONFIG_DSEL_Pos, 7);            
 230:../Dave/Generated/src/DAVESupport/MULTIPLEXER.c **** 
 231:../Dave/Generated/src/DAVESupport/MULTIPLEXER.c ****   WR_REG(BCCU0_CH2->CHCONFIG, BCCU_CH_CHCONFIG_DSEL_Msk, BCCU_CH_CHCONFIG_DSEL_Pos, 7);            
 309              		.loc 1 231 0
 310 019c 214F     		ldr	r7, .L2+68
 222:../Dave/Generated/src/DAVESupport/MULTIPLEXER.c ****   WR_REG(PORT2->IOCR8, 0xb8000000U, PORT_IOCR_PC3_PCR_Pos, 0x16U);                /*P2.11 : PORT2_I
 311              		.loc 1 222 0
 312 019e 2A40     		and	r2, r5
 313 01a0 0A43     		orr	r2, r1
 314 01a2 9A61     		str	r2, [r3, #24]
 229:../Dave/Generated/src/DAVESupport/MULTIPLEXER.c ****   WR_REG(BCCU0_CH0->CHCONFIG, BCCU_CH_CHCONFIG_DSEL_Msk, BCCU_CH_CHCONFIG_DSEL_Pos, 7);            
 315              		.loc 1 229 0
 316 01a4 204A     		ldr	r2, .L2+72
 317 01a6 7023     		mov	r3, #112
 318 01a8 9068     		ldr	r0, [r2, #8]
 232:../Dave/Generated/src/DAVESupport/MULTIPLEXER.c **** 
 233:../Dave/Generated/src/DAVESupport/MULTIPLEXER.c ****   WR_REG(BCCU0_CH3->CHCONFIG, BCCU_CH_CHCONFIG_DSEL_Msk, BCCU_CH_CHCONFIG_DSEL_Pos, 2);            
 319              		.loc 1 233 0
 320 01aa 204D     		ldr	r5, .L2+76
 229:../Dave/Generated/src/DAVESupport/MULTIPLEXER.c ****   WR_REG(BCCU0_CH0->CHCONFIG, BCCU_CH_CHCONFIG_DSEL_Msk, BCCU_CH_CHCONFIG_DSEL_Pos, 7);            
 321              		.loc 1 229 0
 322 01ac 1843     		orr	r0, r3
 323 01ae 9060     		str	r0, [r2, #8]
 231:../Dave/Generated/src/DAVESupport/MULTIPLEXER.c ****   WR_REG(BCCU0_CH2->CHCONFIG, BCCU_CH_CHCONFIG_DSEL_Msk, BCCU_CH_CHCONFIG_DSEL_Pos, 7);            
 324              		.loc 1 231 0
 325 01b0 BC68     		ldr	r4, [r7, #8]
 326              		.loc 1 233 0
 327 01b2 2022     		mov	r2, #32
 231:../Dave/Generated/src/DAVESupport/MULTIPLEXER.c ****   WR_REG(BCCU0_CH2->CHCONFIG, BCCU_CH_CHCONFIG_DSEL_Msk, BCCU_CH_CHCONFIG_DSEL_Pos, 7);            
 328              		.loc 1 231 0
 329 01b4 1C43     		orr	r4, r3
 330 01b6 BC60     		str	r4, [r7, #8]
 331              		.loc 1 233 0
 332 01b8 AE68     		ldr	r6, [r5, #8]
 234:../Dave/Generated/src/DAVESupport/MULTIPLEXER.c **** 
 235:../Dave/Generated/src/DAVESupport/MULTIPLEXER.c ****   WR_REG(BCCU0_CH4->CHCONFIG, BCCU_CH_CHCONFIG_DSEL_Msk, BCCU_CH_CHCONFIG_DSEL_Pos, 2);            
 333              		.loc 1 235 0
 334 01ba 1D49     		ldr	r1, .L2+80
 233:../Dave/Generated/src/DAVESupport/MULTIPLEXER.c ****   WR_REG(BCCU0_CH3->CHCONFIG, BCCU_CH_CHCONFIG_DSEL_Msk, BCCU_CH_CHCONFIG_DSEL_Pos, 2);            
 335              		.loc 1 233 0
 336 01bc 9E43     		bic	r6, r3
 337 01be 1643     		orr	r6, r2
 338 01c0 AE60     		str	r6, [r5, #8]
 339              		.loc 1 235 0
 340 01c2 8868     		ldr	r0, [r1, #8]
 236:../Dave/Generated/src/DAVESupport/MULTIPLEXER.c **** 
 237:../Dave/Generated/src/DAVESupport/MULTIPLEXER.c ****   WR_REG(BCCU0_CH5->CHCONFIG, BCCU_CH_CHCONFIG_DSEL_Msk, BCCU_CH_CHCONFIG_DSEL_Pos, 2);            
 341              		.loc 1 237 0
 342 01c4 1B4F     		ldr	r7, .L2+84
 235:../Dave/Generated/src/DAVESupport/MULTIPLEXER.c ****   WR_REG(BCCU0_CH4->CHCONFIG, BCCU_CH_CHCONFIG_DSEL_Msk, BCCU_CH_CHCONFIG_DSEL_Pos, 2);            
 343              		.loc 1 235 0
 344 01c6 9843     		bic	r0, r3
 345 01c8 1043     		orr	r0, r2
 346 01ca 8860     		str	r0, [r1, #8]
 347              		.loc 1 237 0
 348 01cc BC68     		ldr	r4, [r7, #8]
 238:../Dave/Generated/src/DAVESupport/MULTIPLEXER.c **** 
 239:../Dave/Generated/src/DAVESupport/MULTIPLEXER.c ****   WR_REG(BCCU0_CH6->CHCONFIG, BCCU_CH_CHCONFIG_DSEL_Msk, BCCU_CH_CHCONFIG_DSEL_Pos, 7);            
 349              		.loc 1 239 0
 350 01ce 1A4D     		ldr	r5, .L2+88
 237:../Dave/Generated/src/DAVESupport/MULTIPLEXER.c ****   WR_REG(BCCU0_CH5->CHCONFIG, BCCU_CH_CHCONFIG_DSEL_Msk, BCCU_CH_CHCONFIG_DSEL_Pos, 2);            
 351              		.loc 1 237 0
 352 01d0 9C43     		bic	r4, r3
 353 01d2 2243     		orr	r2, r4
 354 01d4 BA60     		str	r2, [r7, #8]
 355              		.loc 1 239 0
 356 01d6 AE68     		ldr	r6, [r5, #8]
 357 01d8 3343     		orr	r3, r6
 358 01da AB60     		str	r3, [r5, #8]
 240:../Dave/Generated/src/DAVESupport/MULTIPLEXER.c **** }
 359              		.loc 1 240 0
 360 01dc 05B0     		add	sp, sp, #20
 361              		@ sp needed for prologue
 362 01de F0BD     		pop	{r4, r5, r6, r7, pc}
 363              	.L3:
 364              		.align	2
 365              	.L2:
 366 01e0 00020048 		.word	1207960064
 367 01e4 C0FFFFF8 		.word	-117440576
 368 01e8 06000001 		.word	16777222
 369 01ec 04000001 		.word	16777220
 370 01f0 FFFFF8FF 		.word	-458753
 371 01f4 02000001 		.word	16777218
 372 01f8 00020448 		.word	1208222208
 373 01fc 00030448 		.word	1208222464
 374 0200 00040448 		.word	1208222720
 375 0204 00000440 		.word	1074003968
 376 0208 FF47FFFF 		.word	-47105
 377 020c FFFF47FF 		.word	-12058625
 378 0210 00010440 		.word	1074004224
 379 0214 FFFFFF47 		.word	1207959551
 380 0218 00020440 		.word	1074004480
 381 021c FFFBFFFF 		.word	-1025
 382 0220 FFF7FFFF 		.word	-2049
 383 0224 64000350 		.word	1342373988
 384 0228 3C000350 		.word	1342373948
 385 022c 78000350 		.word	1342374008
 386 0230 8C000350 		.word	1342374028
 387 0234 A0000350 		.word	1342374048
 388 0238 B4000350 		.word	1342374068
 389              		.cfi_endproc
 390              	.LFE38:
 392              		.section	.text.DAVE_MUX_PreInit,"ax",%progbits
 393              		.align	1
 394              		.global	DAVE_MUX_PreInit
 395              		.code	16
 396              		.thumb_func
 398              	DAVE_MUX_PreInit:
 399              	.LFB39:
 241:../Dave/Generated/src/DAVESupport/MULTIPLEXER.c **** 
 242:../Dave/Generated/src/DAVESupport/MULTIPLEXER.c **** 
 243:../Dave/Generated/src/DAVESupport/MULTIPLEXER.c **** /*******************************************************************************
 244:../Dave/Generated/src/DAVESupport/MULTIPLEXER.c **** ** Syntax           : void DAVE_MUX_PreInit(void)                             **
 245:../Dave/Generated/src/DAVESupport/MULTIPLEXER.c **** **                                                                            **
 246:../Dave/Generated/src/DAVESupport/MULTIPLEXER.c **** ** Reentrancy       : None                                                    **
 247:../Dave/Generated/src/DAVESupport/MULTIPLEXER.c **** **                                                                            **
 248:../Dave/Generated/src/DAVESupport/MULTIPLEXER.c **** ** Parameters (in)  : void                                                    **
 249:../Dave/Generated/src/DAVESupport/MULTIPLEXER.c **** **                                                                            **
 250:../Dave/Generated/src/DAVESupport/MULTIPLEXER.c **** ** Parameters (out) : none                                                    **
 251:../Dave/Generated/src/DAVESupport/MULTIPLEXER.c **** **                                                                            **
 252:../Dave/Generated/src/DAVESupport/MULTIPLEXER.c **** ** Return value     : none                                                    **
 253:../Dave/Generated/src/DAVESupport/MULTIPLEXER.c **** **                                                                            **
 254:../Dave/Generated/src/DAVESupport/MULTIPLEXER.c **** ** Description      : This is the Mux configuration                           **
 255:../Dave/Generated/src/DAVESupport/MULTIPLEXER.c **** **                                                                            **
 256:../Dave/Generated/src/DAVESupport/MULTIPLEXER.c **** *******************************************************************************/
 257:../Dave/Generated/src/DAVESupport/MULTIPLEXER.c ****  
 258:../Dave/Generated/src/DAVESupport/MULTIPLEXER.c **** void DAVE_MUX_PreInit(void)
 259:../Dave/Generated/src/DAVESupport/MULTIPLEXER.c **** {                    
 400              		.loc 1 259 0
 401              		.cfi_startproc
 260:../Dave/Generated/src/DAVESupport/MULTIPLEXER.c **** 
 261:../Dave/Generated/src/DAVESupport/MULTIPLEXER.c **** /*        PORT Macro definitions for IOCR_OE, IOCR_PCR & HWSEL_HW     */               
 262:../Dave/Generated/src/DAVESupport/MULTIPLEXER.c ****            
 263:../Dave/Generated/src/DAVESupport/MULTIPLEXER.c ****   WR_REG(PORT2->PDISC, PORT2_PDISC_PDIS0_Msk, PORT2_PDISC_PDIS0_Pos, PORT_PDISC_PDIS0);            
 402              		.loc 1 263 0
 403 0000 024B     		ldr	r3, .L5
 404 0002 0121     		mov	r1, #1
 405 0004 1A6E     		ldr	r2, [r3, #96]
 264:../Dave/Generated/src/DAVESupport/MULTIPLEXER.c **** }
 406              		.loc 1 264 0
 407              		@ sp needed for prologue
 263:../Dave/Generated/src/DAVESupport/MULTIPLEXER.c ****   WR_REG(PORT2->PDISC, PORT2_PDISC_PDIS0_Msk, PORT2_PDISC_PDIS0_Pos, PORT_PDISC_PDIS0);            
 408              		.loc 1 263 0
 409 0006 8A43     		bic	r2, r1
 410 0008 1A66     		str	r2, [r3, #96]
 411              		.loc 1 264 0
 412 000a 7047     		bx	lr
 413              	.L6:
 414              		.align	2
 415              	.L5:
 416 000c 00020440 		.word	1074004480
 417              		.cfi_endproc
 418              	.LFE39:
 420              		.text
 421              	.Letext0:
 422              		.file 2 "C:\\DAVE-3.1.10\\eclipse\\/../CMSIS/Infineon/XMC1200_series/Include/XMC1200.h"
 423              		.file 3 "c:\\dave-3.1.10\\arm-gcc\\bin\\../lib/gcc/arm-none-eabi/4.7.4/../../../../arm-none-eabi/i