   1              		.cpu cortex-m0
   2              		.fpu softvfp
   3              		.eabi_attribute 20, 1
   4              		.eabi_attribute 21, 1
   5              		.eabi_attribute 23, 3
   6              		.eabi_attribute 24, 1
   7              		.eabi_attribute 25, 1
   8              		.eabi_attribute 26, 1
   9              		.eabi_attribute 30, 4
  10              		.eabi_attribute 34, 0
  11              		.eabi_attribute 18, 4
  12              		.code	16
  13              		.file	"COLORLAMP01.c"
  14              		.text
  15              	.Ltext0:
  16              		.cfi_sections	.debug_frame
  17              		.section	.text.COLORLAMP01_Init,"ax",%progbits
  18              		.align	1
  19              		.global	COLORLAMP01_Init
  20              		.code	16
  21              		.thumb_func
  23              	COLORLAMP01_Init:
  24              	.LFB38:
  25              		.file 1 "../Dave/Generated/src/COLORLAMP01/COLORLAMP01.c"
   1:../Dave/Generated/src/COLORLAMP01/COLORLAMP01.c **** /*******************************************************************************
   2:../Dave/Generated/src/COLORLAMP01/COLORLAMP01.c **** **  DAVE App Name : COLORLAMP01       App Version: 1.0.7               
   3:../Dave/Generated/src/COLORLAMP01/COLORLAMP01.c **** **  This file is generated by DAVE, User modification to this file will be    **
   4:../Dave/Generated/src/COLORLAMP01/COLORLAMP01.c **** **  overwritten at the next code generation.                                  **
   5:../Dave/Generated/src/COLORLAMP01/COLORLAMP01.c **** *******************************************************************************/
   6:../Dave/Generated/src/COLORLAMP01/COLORLAMP01.c **** 
   7:../Dave/Generated/src/COLORLAMP01/COLORLAMP01.c **** 
   8:../Dave/Generated/src/COLORLAMP01/COLORLAMP01.c **** /*CODE_BLOCK_BEGIN[COLORLAMP01.c]*/
   9:../Dave/Generated/src/COLORLAMP01/COLORLAMP01.c **** /*******************************************************************************
  10:../Dave/Generated/src/COLORLAMP01/COLORLAMP01.c ****  Copyright (c) 2013, Infineon Technologies AG                                 **
  11:../Dave/Generated/src/COLORLAMP01/COLORLAMP01.c ****  All rights reserved.                                                         **
  12:../Dave/Generated/src/COLORLAMP01/COLORLAMP01.c ****                                                                               **
  13:../Dave/Generated/src/COLORLAMP01/COLORLAMP01.c ****  Redistribution and use in source and binary forms, with or without           **
  14:../Dave/Generated/src/COLORLAMP01/COLORLAMP01.c ****  modification,are permitted provided that the following conditions are met:   **
  15:../Dave/Generated/src/COLORLAMP01/COLORLAMP01.c ****                                                                               **
  16:../Dave/Generated/src/COLORLAMP01/COLORLAMP01.c ****  *Redistributions of source code must retain the above copyright notice,      **
  17:../Dave/Generated/src/COLORLAMP01/COLORLAMP01.c ****  this list of conditions and the following disclaimer.                        **
  18:../Dave/Generated/src/COLORLAMP01/COLORLAMP01.c ****  *Redistributions in binary form must reproduce the above copyright notice,   **
  19:../Dave/Generated/src/COLORLAMP01/COLORLAMP01.c ****  this list of conditions and the following disclaimer in the documentation    **
  20:../Dave/Generated/src/COLORLAMP01/COLORLAMP01.c ****  and/or other materials provided with the distribution.                       **
  21:../Dave/Generated/src/COLORLAMP01/COLORLAMP01.c ****  *Neither the name of the copyright holders nor the names of its contributors **
  22:../Dave/Generated/src/COLORLAMP01/COLORLAMP01.c ****  may be used to endorse or promote products derived from this software without** 
  23:../Dave/Generated/src/COLORLAMP01/COLORLAMP01.c ****  specific prior written permission.                                           **
  24:../Dave/Generated/src/COLORLAMP01/COLORLAMP01.c ****                                                                               **
  25:../Dave/Generated/src/COLORLAMP01/COLORLAMP01.c ****  THIS SOFTWARE IS PROVIDED BY THE COPYRIGHT HOLDERS AND CONTRIBUTORS "AS IS"  **
  26:../Dave/Generated/src/COLORLAMP01/COLORLAMP01.c ****  AND ANY EXPRESS OR IMPLIED WARRANTIES, INCLUDING, BUT NOT LIMITED TO, THE    **
  27:../Dave/Generated/src/COLORLAMP01/COLORLAMP01.c ****  IMPLIED WARRANTIES OF MERCHANTABILITY AND FITNESS FOR A PARTICULAR PURPOSE   **
  28:../Dave/Generated/src/COLORLAMP01/COLORLAMP01.c ****  ARE  DISCLAIMED. IN NO EVENT SHALL THE COPYRIGHT HOLDER OR CONTRIBUTORS BE   **
  29:../Dave/Generated/src/COLORLAMP01/COLORLAMP01.c ****  LIABLE  FOR ANY DIRECT, INDIRECT, INCIDENTAL, SPECIAL, EXEMPLARY, OR         **
  30:../Dave/Generated/src/COLORLAMP01/COLORLAMP01.c ****  CONSEQUENTIAL DAMAGES (INCLUDING, BUT NOT LIMITED TO, PROCUREMENT OF         **
  31:../Dave/Generated/src/COLORLAMP01/COLORLAMP01.c ****  SUBSTITUTE GOODS OR  SERVICES; LOSS OF USE, DATA, OR PROFITS; OR BUSINESS    **
  32:../Dave/Generated/src/COLORLAMP01/COLORLAMP01.c ****  INTERRUPTION) HOWEVER CAUSED AND ON ANY THEORY OF LIABILITY, WHETHER IN      **
  33:../Dave/Generated/src/COLORLAMP01/COLORLAMP01.c ****  CONTRACT, STRICT LIABILITY,OR TORT (INCLUDING NEGLIGENCE OR OTHERWISE)       **
  34:../Dave/Generated/src/COLORLAMP01/COLORLAMP01.c ****  ARISING IN ANY WAY OUT OF THE USE OF THIS SOFTWARE, EVEN IF ADVISED OF THE   **
  35:../Dave/Generated/src/COLORLAMP01/COLORLAMP01.c ****  POSSIBILITY OF SUCH DAMAGE.                                                  **
  36:../Dave/Generated/src/COLORLAMP01/COLORLAMP01.c ****                                                                               **
  37:../Dave/Generated/src/COLORLAMP01/COLORLAMP01.c ****  To improve the quality of the software, users are encouraged to share        **
  38:../Dave/Generated/src/COLORLAMP01/COLORLAMP01.c ****  modifications, enhancements or bug fixes with Infineon Technologies AG       **
  39:../Dave/Generated/src/COLORLAMP01/COLORLAMP01.c ****  dave@infineon.com).                                                          **
  40:../Dave/Generated/src/COLORLAMP01/COLORLAMP01.c ****                                                                               **
  41:../Dave/Generated/src/COLORLAMP01/COLORLAMP01.c **** ********************************************************************************
  42:../Dave/Generated/src/COLORLAMP01/COLORLAMP01.c **** **                                                                            **
  43:../Dave/Generated/src/COLORLAMP01/COLORLAMP01.c **** **                                                                            **
  44:../Dave/Generated/src/COLORLAMP01/COLORLAMP01.c **** ** PLATFORM : Infineon XMC1000 Series   			                          **
  45:../Dave/Generated/src/COLORLAMP01/COLORLAMP01.c **** **                                                                            **
  46:../Dave/Generated/src/COLORLAMP01/COLORLAMP01.c **** ** COMPILER : Compiler Independent                                            **
  47:../Dave/Generated/src/COLORLAMP01/COLORLAMP01.c **** **                                                                            **
  48:../Dave/Generated/src/COLORLAMP01/COLORLAMP01.c **** ** AUTHOR   : App Developer                                                   **
  49:../Dave/Generated/src/COLORLAMP01/COLORLAMP01.c **** **                                                                            **
  50:../Dave/Generated/src/COLORLAMP01/COLORLAMP01.c **** ** MAY BE CHANGED BY USER [yes/no]: Yes                                       **
  51:../Dave/Generated/src/COLORLAMP01/COLORLAMP01.c **** **                                                                            **
  52:../Dave/Generated/src/COLORLAMP01/COLORLAMP01.c **** ** MODIFICATION DATE : Dec 06, 2013                                           **
  53:../Dave/Generated/src/COLORLAMP01/COLORLAMP01.c **** **                                                                            **
  54:../Dave/Generated/src/COLORLAMP01/COLORLAMP01.c **** *******************************************************************************/
  55:../Dave/Generated/src/COLORLAMP01/COLORLAMP01.c **** /*******************************************************************************
  56:../Dave/Generated/src/COLORLAMP01/COLORLAMP01.c **** **                      Author(s) Identity                                    **
  57:../Dave/Generated/src/COLORLAMP01/COLORLAMP01.c **** ********************************************************************************
  58:../Dave/Generated/src/COLORLAMP01/COLORLAMP01.c **** **                                                                            **
  59:../Dave/Generated/src/COLORLAMP01/COLORLAMP01.c **** ** Initials     Name                                                          **
  60:../Dave/Generated/src/COLORLAMP01/COLORLAMP01.c **** ** ---------------------------------------------------------------------------**
  61:../Dave/Generated/src/COLORLAMP01/COLORLAMP01.c **** ** ES          App Developer                                                  **
  62:../Dave/Generated/src/COLORLAMP01/COLORLAMP01.c **** **                                                                            **
  63:../Dave/Generated/src/COLORLAMP01/COLORLAMP01.c **** *******************************************************************************/
  64:../Dave/Generated/src/COLORLAMP01/COLORLAMP01.c **** /**
  65:../Dave/Generated/src/COLORLAMP01/COLORLAMP01.c ****  * @file   COLORLAMP01.c
  66:../Dave/Generated/src/COLORLAMP01/COLORLAMP01.c ****  *
  67:../Dave/Generated/src/COLORLAMP01/COLORLAMP01.c ****  * @brief  This file contains implementations of all Public and Private functions 
  68:../Dave/Generated/src/COLORLAMP01/COLORLAMP01.c ****  *        of COLORLAMP01 App.
  69:../Dave/Generated/src/COLORLAMP01/COLORLAMP01.c ****  */
  70:../Dave/Generated/src/COLORLAMP01/COLORLAMP01.c **** /*
  71:../Dave/Generated/src/COLORLAMP01/COLORLAMP01.c ****  * Revision History
  72:../Dave/Generated/src/COLORLAMP01/COLORLAMP01.c ****  * 14 Feb  2013 v1.0.0  Initial Version.
  73:../Dave/Generated/src/COLORLAMP01/COLORLAMP01.c ****  * 03 Apr  2013 v1.0.2  UTP AI00164659: unable to compile the code w Global 
  74:../Dave/Generated/src/COLORLAMP01/COLORLAMP01.c ****  *                      Dimming configuration is fixed.
  75:../Dave/Generated/src/COLORLAMP01/COLORLAMP01.c ****  * 26 Sep  2013 v1.0.4  Added support for XMC1202 device.
  76:../Dave/Generated/src/COLORLAMP01/COLORLAMP01.c ****  * 06 Dec  2013 v1.0.5  Changes related to LIGHTINGSYS01 has taken care.
  77:../Dave/Generated/src/COLORLAMP01/COLORLAMP01.c ****  */
  78:../Dave/Generated/src/COLORLAMP01/COLORLAMP01.c **** /*******************************************************************************
  79:../Dave/Generated/src/COLORLAMP01/COLORLAMP01.c ****  ** INCLUDE FILES                                                             **
  80:../Dave/Generated/src/COLORLAMP01/COLORLAMP01.c ****  ******************************************************************************/
  81:../Dave/Generated/src/COLORLAMP01/COLORLAMP01.c **** 
  82:../Dave/Generated/src/COLORLAMP01/COLORLAMP01.c **** /** Inclusion of header file */
  83:../Dave/Generated/src/COLORLAMP01/COLORLAMP01.c **** #include <DAVE3.h>
  84:../Dave/Generated/src/COLORLAMP01/COLORLAMP01.c **** 
  85:../Dave/Generated/src/COLORLAMP01/COLORLAMP01.c **** /*******************************************************************************
  86:../Dave/Generated/src/COLORLAMP01/COLORLAMP01.c **** **                      Private Macro Definitions                             **
  87:../Dave/Generated/src/COLORLAMP01/COLORLAMP01.c **** *******************************************************************************/
  88:../Dave/Generated/src/COLORLAMP01/COLORLAMP01.c **** 
  89:../Dave/Generated/src/COLORLAMP01/COLORLAMP01.c **** /*******************************************************************************
  90:../Dave/Generated/src/COLORLAMP01/COLORLAMP01.c **** **                      Private Type Definitions                              **
  91:../Dave/Generated/src/COLORLAMP01/COLORLAMP01.c **** *******************************************************************************/
  92:../Dave/Generated/src/COLORLAMP01/COLORLAMP01.c **** 
  93:../Dave/Generated/src/COLORLAMP01/COLORLAMP01.c **** 
  94:../Dave/Generated/src/COLORLAMP01/COLORLAMP01.c **** /*******************************************************************************
  95:../Dave/Generated/src/COLORLAMP01/COLORLAMP01.c **** **                 Private Function Declarations                              **
  96:../Dave/Generated/src/COLORLAMP01/COLORLAMP01.c **** *******************************************************************************/
  97:../Dave/Generated/src/COLORLAMP01/COLORLAMP01.c **** 
  98:../Dave/Generated/src/COLORLAMP01/COLORLAMP01.c **** 
  99:../Dave/Generated/src/COLORLAMP01/COLORLAMP01.c **** /*******************************************************************************
 100:../Dave/Generated/src/COLORLAMP01/COLORLAMP01.c **** **                      Global Constant Definitions                           **
 101:../Dave/Generated/src/COLORLAMP01/COLORLAMP01.c **** *******************************************************************************/
 102:../Dave/Generated/src/COLORLAMP01/COLORLAMP01.c **** 
 103:../Dave/Generated/src/COLORLAMP01/COLORLAMP01.c **** /*******************************************************************************
 104:../Dave/Generated/src/COLORLAMP01/COLORLAMP01.c **** **                      Global Variable Definitions                           **
 105:../Dave/Generated/src/COLORLAMP01/COLORLAMP01.c **** *******************************************************************************/
 106:../Dave/Generated/src/COLORLAMP01/COLORLAMP01.c **** 
 107:../Dave/Generated/src/COLORLAMP01/COLORLAMP01.c **** /*******************************************************************************
 108:../Dave/Generated/src/COLORLAMP01/COLORLAMP01.c **** **                      Private Constant Definitions                          **
 109:../Dave/Generated/src/COLORLAMP01/COLORLAMP01.c **** *******************************************************************************/
 110:../Dave/Generated/src/COLORLAMP01/COLORLAMP01.c **** 
 111:../Dave/Generated/src/COLORLAMP01/COLORLAMP01.c **** /*******************************************************************************
 112:../Dave/Generated/src/COLORLAMP01/COLORLAMP01.c **** **                 Function like macro definitions                            **
 113:../Dave/Generated/src/COLORLAMP01/COLORLAMP01.c **** *******************************************************************************/
 114:../Dave/Generated/src/COLORLAMP01/COLORLAMP01.c **** /*******************************************************************************
 115:../Dave/Generated/src/COLORLAMP01/COLORLAMP01.c **** **                      Private Function Definitions                          **
 116:../Dave/Generated/src/COLORLAMP01/COLORLAMP01.c **** *******************************************************************************/
 117:../Dave/Generated/src/COLORLAMP01/COLORLAMP01.c **** 
 118:../Dave/Generated/src/COLORLAMP01/COLORLAMP01.c **** /*******************************************************************************
 119:../Dave/Generated/src/COLORLAMP01/COLORLAMP01.c **** **                      Public Function Definitions                           **
 120:../Dave/Generated/src/COLORLAMP01/COLORLAMP01.c **** *******************************************************************************/
 121:../Dave/Generated/src/COLORLAMP01/COLORLAMP01.c **** //This function is called by DAVESupport App
 122:../Dave/Generated/src/COLORLAMP01/COLORLAMP01.c **** void COLORLAMP01_Init(void)
 123:../Dave/Generated/src/COLORLAMP01/COLORLAMP01.c **** {
  26              		.loc 1 123 0
  27              		.cfi_startproc
 124:../Dave/Generated/src/COLORLAMP01/COLORLAMP01.c **** 	
 125:../Dave/Generated/src/COLORLAMP01/COLORLAMP01.c **** }
  28              		.loc 1 125 0
  29              		@ sp needed for prologue
  30 0000 7047     		bx	lr
  31              		.cfi_endproc
  32              	.LFE38:
  34              		.section	.text.COLORLAMP01_Enable,"ax",%progbits
  35              		.align	1
  36              		.global	COLORLAMP01_Enable
  37              		.code	16
  38              		.thumb_func
  40              	COLORLAMP01_Enable:
  41              	.LFB39:
 126:../Dave/Generated/src/COLORLAMP01/COLORLAMP01.c **** 
 127:../Dave/Generated/src/COLORLAMP01/COLORLAMP01.c **** /* Enable the Color lamp */
 128:../Dave/Generated/src/COLORLAMP01/COLORLAMP01.c **** void COLORLAMP01_Enable(const COLORLAMP01_ConfigHandleType *Handle)
 129:../Dave/Generated/src/COLORLAMP01/COLORLAMP01.c **** {
  42              		.loc 1 129 0
  43              		.cfi_startproc
  44              	.LVL0:
  45 0000 08B5     		push	{r3, lr}
  46              	.LCFI0:
  47              		.cfi_def_cfa_offset 8
  48              		.cfi_offset 3, -8
  49              		.cfi_offset 14, -4
  50              		.loc 1 129 0
  51 0002 031C     		mov	r3, r0
 130:../Dave/Generated/src/COLORLAMP01/COLORLAMP01.c ****   BCCUCH01_Enable(Handle->BCCUGlobal, Handle->ChannelMask);
  52              		.loc 1 130 0
  53 0004 9969     		ldr	r1, [r3, #24]
  54 0006 006A     		ldr	r0, [r0, #32]
  55              	.LVL1:
  56 0008 FFF7FEFF 		bl	BCCUCH01_Enable
  57              	.LVL2:
 131:../Dave/Generated/src/COLORLAMP01/COLORLAMP01.c **** }
  58              		.loc 1 131 0
  59              		@ sp needed for prologue
  60 000c 08BD     		pop	{r3, pc}
  61              		.cfi_endproc
  62              	.LFE39:
  64              		.section	.text.COLORLAMP01_Disable,"ax",%progbits
  65              		.align	1
  66              		.global	COLORLAMP01_Disable
  67              		.code	16
  68              		.thumb_func
  70              	COLORLAMP01_Disable:
  71              	.LFB40:
 132:../Dave/Generated/src/COLORLAMP01/COLORLAMP01.c **** 
 133:../Dave/Generated/src/COLORLAMP01/COLORLAMP01.c **** /* Disable the Color lamp */
 134:../Dave/Generated/src/COLORLAMP01/COLORLAMP01.c **** void COLORLAMP01_Disable(const COLORLAMP01_ConfigHandleType *Handle)
 135:../Dave/Generated/src/COLORLAMP01/COLORLAMP01.c **** {	
  72              		.loc 1 135 0
  73              		.cfi_startproc
  74              	.LVL3:
  75 0000 08B5     		push	{r3, lr}
  76              	.LCFI1:
  77              		.cfi_def_cfa_offset 8
  78              		.cfi_offset 3, -8
  79              		.cfi_offset 14, -4
  80              		.loc 1 135 0
  81 0002 031C     		mov	r3, r0
 136:../Dave/Generated/src/COLORLAMP01/COLORLAMP01.c ****   BCCUCH01_Disable(Handle->BCCUGlobal, Handle->ChannelMask);
  82              		.loc 1 136 0
  83 0004 9969     		ldr	r1, [r3, #24]
  84 0006 006A     		ldr	r0, [r0, #32]
  85              	.LVL4:
  86 0008 FFF7FEFF 		bl	BCCUCH01_Disable
  87              	.LVL5:
 137:../Dave/Generated/src/COLORLAMP01/COLORLAMP01.c **** }
  88              		.loc 1 137 0
  89              		@ sp needed for prologue
  90 000c 08BD     		pop	{r3, pc}
  91              		.cfi_endproc
  92              	.LFE40:
  94              		.section	.text.COLORLAMP01_SetColor,"ax",%progbits
  95              		.align	1
  96              		.global	COLORLAMP01_SetColor
  97              		.code	16
  98              		.thumb_func
 100              	COLORLAMP01_SetColor:
 101              	.LFB41:
 138:../Dave/Generated/src/COLORLAMP01/COLORLAMP01.c **** 
 139:../Dave/Generated/src/COLORLAMP01/COLORLAMP01.c **** /* Set the target Color */
 140:../Dave/Generated/src/COLORLAMP01/COLORLAMP01.c **** void COLORLAMP01_SetColor(const COLORLAMP01_ConfigHandleType *Handle,
 141:../Dave/Generated/src/COLORLAMP01/COLORLAMP01.c ****                           COLORLAMP01_ColorHandleType *HandleColor)
 142:../Dave/Generated/src/COLORLAMP01/COLORLAMP01.c **** {
 102              		.loc 1 142 0
 103              		.cfi_startproc
 104              	.LVL6:
 105 0000 38B5     		push	{r3, r4, r5, lr}
 106              	.LCFI2:
 107              		.cfi_def_cfa_offset 16
 108              		.cfi_offset 3, -16
 109              		.cfi_offset 4, -12
 110              		.cfi_offset 5, -8
 111              		.cfi_offset 14, -4
 112              		.loc 1 142 0
 113 0002 041C     		mov	r4, r0
 143:../Dave/Generated/src/COLORLAMP01/COLORLAMP01.c **** 
 144:../Dave/Generated/src/COLORLAMP01/COLORLAMP01.c ****   if(Handle->ChannelRed != NULL) {
 114              		.loc 1 144 0
 115 0004 0068     		ldr	r0, [r0]
 116              	.LVL7:
 142:../Dave/Generated/src/COLORLAMP01/COLORLAMP01.c **** {
 117              		.loc 1 142 0
 118 0006 0D1C     		mov	r5, r1
 119              		.loc 1 144 0
 120 0008 0028     		cmp	r0, #0
 121 000a 06D0     		beq	.L5
 145:../Dave/Generated/src/COLORLAMP01/COLORLAMP01.c **** 
 146:../Dave/Generated/src/COLORLAMP01/COLORLAMP01.c ****     BCCUCH01_SetIntensity((Handle->ChannelRed), (HandleColor->Intensity_Red));
 122              		.loc 1 146 0
 123 000c 0968     		ldr	r1, [r1]
 124              	.LVL8:
 125 000e FFF7FEFF 		bl	BCCUCH01_SetIntensity
 126              	.LVL9:
 147:../Dave/Generated/src/COLORLAMP01/COLORLAMP01.c **** 
 148:../Dave/Generated/src/COLORLAMP01/COLORLAMP01.c ****     BCCUCH01_SetLinearWalkPrescaler((Handle->ChannelRed), 
 127              		.loc 1 148 0
 128 0012 2068     		ldr	r0, [r4]
 129 0014 A969     		ldr	r1, [r5, #24]
 130 0016 FFF7FEFF 		bl	BCCUCH01_SetLinearWalkPrescaler
 131              	.LVL10:
 132              	.L5:
 149:../Dave/Generated/src/COLORLAMP01/COLORLAMP01.c ****                                (HandleColor->LinearWalkPrescaler));
 150:../Dave/Generated/src/COLORLAMP01/COLORLAMP01.c ****   }
 151:../Dave/Generated/src/COLORLAMP01/COLORLAMP01.c **** 
 152:../Dave/Generated/src/COLORLAMP01/COLORLAMP01.c ****   if(Handle->ChannelGreen != NULL) {
 133              		.loc 1 152 0
 134 001a 6068     		ldr	r0, [r4, #4]
 135 001c 0028     		cmp	r0, #0
 136 001e 06D0     		beq	.L6
 153:../Dave/Generated/src/COLORLAMP01/COLORLAMP01.c **** 
 154:../Dave/Generated/src/COLORLAMP01/COLORLAMP01.c ****     BCCUCH01_SetIntensity((Handle->ChannelGreen), 
 137              		.loc 1 154 0
 138 0020 6968     		ldr	r1, [r5, #4]
 139 0022 FFF7FEFF 		bl	BCCUCH01_SetIntensity
 140              	.LVL11:
 155:../Dave/Generated/src/COLORLAMP01/COLORLAMP01.c ****                           (HandleColor->Intensity_Green));
 156:../Dave/Generated/src/COLORLAMP01/COLORLAMP01.c **** 
 157:../Dave/Generated/src/COLORLAMP01/COLORLAMP01.c ****     BCCUCH01_SetLinearWalkPrescaler((Handle->ChannelGreen), 
 141              		.loc 1 157 0
 142 0026 6068     		ldr	r0, [r4, #4]
 143 0028 A969     		ldr	r1, [r5, #24]
 144 002a FFF7FEFF 		bl	BCCUCH01_SetLinearWalkPrescaler
 145              	.LVL12:
 146              	.L6:
 158:../Dave/Generated/src/COLORLAMP01/COLORLAMP01.c ****                                (HandleColor->LinearWalkPrescaler));
 159:../Dave/Generated/src/COLORLAMP01/COLORLAMP01.c ****   }
 160:../Dave/Generated/src/COLORLAMP01/COLORLAMP01.c **** 
 161:../Dave/Generated/src/COLORLAMP01/COLORLAMP01.c ****   if(Handle->ChannelBlue != NULL) {
 147              		.loc 1 161 0
 148 002e A068     		ldr	r0, [r4, #8]
 149 0030 0028     		cmp	r0, #0
 150 0032 06D0     		beq	.L7
 162:../Dave/Generated/src/COLORLAMP01/COLORLAMP01.c **** 
 163:../Dave/Generated/src/COLORLAMP01/COLORLAMP01.c ****     BCCUCH01_SetIntensity((Handle->ChannelBlue), (HandleColor->Intensity_Blue));
 151              		.loc 1 163 0
 152 0034 A968     		ldr	r1, [r5, #8]
 153 0036 FFF7FEFF 		bl	BCCUCH01_SetIntensity
 154              	.LVL13:
 164:../Dave/Generated/src/COLORLAMP01/COLORLAMP01.c **** 
 165:../Dave/Generated/src/COLORLAMP01/COLORLAMP01.c ****     BCCUCH01_SetLinearWalkPrescaler((Handle->ChannelBlue), 
 155              		.loc 1 165 0
 156 003a A068     		ldr	r0, [r4, #8]
 157 003c A969     		ldr	r1, [r5, #24]
 158 003e FFF7FEFF 		bl	BCCUCH01_SetLinearWalkPrescaler
 159              	.LVL14:
 160              	.L7:
 166:../Dave/Generated/src/COLORLAMP01/COLORLAMP01.c ****                                (HandleColor->LinearWalkPrescaler));
 167:../Dave/Generated/src/COLORLAMP01/COLORLAMP01.c ****   }
 168:../Dave/Generated/src/COLORLAMP01/COLORLAMP01.c **** 
 169:../Dave/Generated/src/COLORLAMP01/COLORLAMP01.c ****   if(Handle->ChannelWhite != NULL) {
 161              		.loc 1 169 0
 162 0042 E068     		ldr	r0, [r4, #12]
 163 0044 0028     		cmp	r0, #0
 164 0046 06D0     		beq	.L8
 170:../Dave/Generated/src/COLORLAMP01/COLORLAMP01.c **** 
 171:../Dave/Generated/src/COLORLAMP01/COLORLAMP01.c ****     BCCUCH01_SetIntensity((Handle->ChannelWhite), 
 165              		.loc 1 171 0
 166 0048 E968     		ldr	r1, [r5, #12]
 167 004a FFF7FEFF 		bl	BCCUCH01_SetIntensity
 168              	.LVL15:
 172:../Dave/Generated/src/COLORLAMP01/COLORLAMP01.c ****                           (HandleColor->Intensity_White));
 173:../Dave/Generated/src/COLORLAMP01/COLORLAMP01.c **** 
 174:../Dave/Generated/src/COLORLAMP01/COLORLAMP01.c ****     BCCUCH01_SetLinearWalkPrescaler((Handle->ChannelWhite), 
 169              		.loc 1 174 0
 170 004e E068     		ldr	r0, [r4, #12]
 171 0050 A969     		ldr	r1, [r5, #24]
 172 0052 FFF7FEFF 		bl	BCCUCH01_SetLinearWalkPrescaler
 173              	.LVL16:
 174              	.L8:
 175:../Dave/Generated/src/COLORLAMP01/COLORLAMP01.c ****                                (HandleColor->LinearWalkPrescaler));
 176:../Dave/Generated/src/COLORLAMP01/COLORLAMP01.c ****   }
 177:../Dave/Generated/src/COLORLAMP01/COLORLAMP01.c **** 
 178:../Dave/Generated/src/COLORLAMP01/COLORLAMP01.c ****   if(Handle->ChannelAmber != NULL) {
 175              		.loc 1 178 0
 176 0056 2069     		ldr	r0, [r4, #16]
 177 0058 0028     		cmp	r0, #0
 178 005a 06D0     		beq	.L9
 179:../Dave/Generated/src/COLORLAMP01/COLORLAMP01.c **** 
 180:../Dave/Generated/src/COLORLAMP01/COLORLAMP01.c ****     BCCUCH01_SetIntensity((Handle->ChannelAmber), 
 179              		.loc 1 180 0
 180 005c 2969     		ldr	r1, [r5, #16]
 181 005e FFF7FEFF 		bl	BCCUCH01_SetIntensity
 182              	.LVL17:
 181:../Dave/Generated/src/COLORLAMP01/COLORLAMP01.c ****                           (HandleColor->Intensity_Amber));
 182:../Dave/Generated/src/COLORLAMP01/COLORLAMP01.c **** 
 183:../Dave/Generated/src/COLORLAMP01/COLORLAMP01.c ****     BCCUCH01_SetLinearWalkPrescaler((Handle->ChannelAmber), 
 183              		.loc 1 183 0
 184 0062 2069     		ldr	r0, [r4, #16]
 185 0064 A969     		ldr	r1, [r5, #24]
 186 0066 FFF7FEFF 		bl	BCCUCH01_SetLinearWalkPrescaler
 187              	.LVL18:
 188              	.L9:
 184:../Dave/Generated/src/COLORLAMP01/COLORLAMP01.c ****                                (HandleColor->LinearWalkPrescaler));
 185:../Dave/Generated/src/COLORLAMP01/COLORLAMP01.c ****   }
 186:../Dave/Generated/src/COLORLAMP01/COLORLAMP01.c **** 
 187:../Dave/Generated/src/COLORLAMP01/COLORLAMP01.c ****   if(Handle->ChannelFree != NULL) {
 189              		.loc 1 187 0
 190 006a 6069     		ldr	r0, [r4, #20]
 191 006c 0028     		cmp	r0, #0
 192 006e 06D0     		beq	.L10
 188:../Dave/Generated/src/COLORLAMP01/COLORLAMP01.c **** 
 189:../Dave/Generated/src/COLORLAMP01/COLORLAMP01.c ****     BCCUCH01_SetIntensity((Handle->ChannelFree), 
 193              		.loc 1 189 0
 194 0070 6969     		ldr	r1, [r5, #20]
 195 0072 FFF7FEFF 		bl	BCCUCH01_SetIntensity
 196              	.LVL19:
 190:../Dave/Generated/src/COLORLAMP01/COLORLAMP01.c ****                            (HandleColor->Intensity_Free));
 191:../Dave/Generated/src/COLORLAMP01/COLORLAMP01.c **** 
 192:../Dave/Generated/src/COLORLAMP01/COLORLAMP01.c ****     BCCUCH01_SetLinearWalkPrescaler((Handle->ChannelFree), 
 197              		.loc 1 192 0
 198 0076 A969     		ldr	r1, [r5, #24]
 199 0078 6069     		ldr	r0, [r4, #20]
 200 007a FFF7FEFF 		bl	BCCUCH01_SetLinearWalkPrescaler
 201              	.LVL20:
 202              	.L10:
 193:../Dave/Generated/src/COLORLAMP01/COLORLAMP01.c ****                                (HandleColor->LinearWalkPrescaler));
 194:../Dave/Generated/src/COLORLAMP01/COLORLAMP01.c ****   }
 195:../Dave/Generated/src/COLORLAMP01/COLORLAMP01.c ****     
 196:../Dave/Generated/src/COLORLAMP01/COLORLAMP01.c ****   BCCUCH01_StartLinearWalk(Handle->BCCUGlobal, Handle->ChannelMask);
 203              		.loc 1 196 0
 204 007e 206A     		ldr	r0, [r4, #32]
 205 0080 A169     		ldr	r1, [r4, #24]
 206 0082 FFF7FEFF 		bl	BCCUCH01_StartLinearWalk
 207              	.LVL21:
 197:../Dave/Generated/src/COLORLAMP01/COLORLAMP01.c **** 
 198:../Dave/Generated/src/COLORLAMP01/COLORLAMP01.c **** }
 208              		.loc 1 198 0
 209              		@ sp needed for prologue
 210              	.LVL22:
 211              	.LVL23:
 212 0086 38BD     		pop	{r3, r4, r5, pc}
 213              		.cfi_endproc
 214              	.LFE41:
 216              		.section	.text.COLORLAMP01_AbortColorChange,"ax",%progbits
 217              		.align	1
 218              		.global	COLORLAMP01_AbortColorChange
 219              		.code	16
 220              		.thumb_func
 222              	COLORLAMP01_AbortColorChange:
 223              	.LFB42:
 199:../Dave/Generated/src/COLORLAMP01/COLORLAMP01.c **** 
 200:../Dave/Generated/src/COLORLAMP01/COLORLAMP01.c **** void COLORLAMP01_AbortColorChange(const COLORLAMP01_ConfigHandleType *Handle,
 201:../Dave/Generated/src/COLORLAMP01/COLORLAMP01.c ****                           COLORLAMP01_ColorHandleType *HandleColor)
 202:../Dave/Generated/src/COLORLAMP01/COLORLAMP01.c **** {
 224              		.loc 1 202 0
 225              		.cfi_startproc
 226              	.LVL24:
 227 0000 08B5     		push	{r3, lr}
 228              	.LCFI3:
 229              		.cfi_def_cfa_offset 8
 230              		.cfi_offset 3, -8
 231              		.cfi_offset 14, -4
 232              		.loc 1 202 0
 233 0002 031C     		mov	r3, r0
 203:../Dave/Generated/src/COLORLAMP01/COLORLAMP01.c ****   BCCUCH01_AbortLinearWalk(Handle->BCCUGlobal, Handle->ChannelMask);
 234              		.loc 1 203 0
 235 0004 9969     		ldr	r1, [r3, #24]
 236              	.LVL25:
 237 0006 006A     		ldr	r0, [r0, #32]
 238              	.LVL26:
 239 0008 FFF7FEFF 		bl	BCCUCH01_AbortLinearWalk
 240              	.LVL27:
 204:../Dave/Generated/src/COLORLAMP01/COLORLAMP01.c **** }
 241              		.loc 1 204 0
 242              		@ sp needed for prologue
 243 000c 08BD     		pop	{r3, pc}
 244              		.cfi_endproc
 245              	.LFE42:
 247              		.section	.text.COLORLAMP01_SetDimLevelExponential,"ax",%progbits
 248              		.align	1
 249              		.global	COLORLAMP01_SetDimLevelExponential
 250              		.code	16
 251              		.thumb_func
 253              	COLORLAMP01_SetDimLevelExponential:
 254              	.LFB43:
 205:../Dave/Generated/src/COLORLAMP01/COLORLAMP01.c **** 
 206:../Dave/Generated/src/COLORLAMP01/COLORLAMP01.c **** 
 207:../Dave/Generated/src/COLORLAMP01/COLORLAMP01.c **** /* Dim level setting with exponential property using Dimming Engine */
 208:../Dave/Generated/src/COLORLAMP01/COLORLAMP01.c **** void COLORLAMP01_SetDimLevelExponential(const COLORLAMP01_ConfigHandleType
 209:../Dave/Generated/src/COLORLAMP01/COLORLAMP01.c ****                                         *Handle, uint32_t DimLevel,
 210:../Dave/Generated/src/COLORLAMP01/COLORLAMP01.c ****                                         uint32_t DimDiv,
 211:../Dave/Generated/src/COLORLAMP01/COLORLAMP01.c ****                                         uint32_t DimPs
 212:../Dave/Generated/src/COLORLAMP01/COLORLAMP01.c **** 										)
 213:../Dave/Generated/src/COLORLAMP01/COLORLAMP01.c **** {  
 255              		.loc 1 213 0
 256              		.cfi_startproc
 257              	.LVL28:
 258 0000 70B5     		push	{r4, r5, r6, lr}
 259              	.LCFI4:
 260              		.cfi_def_cfa_offset 16
 261              		.cfi_offset 4, -16
 262              		.cfi_offset 5, -12
 263              		.cfi_offset 6, -8
 264              		.cfi_offset 14, -4
 265              		.loc 1 213 0
 266 0002 161C     		mov	r6, r2
 214:../Dave/Generated/src/COLORLAMP01/COLORLAMP01.c **** #ifdef DIMAPP_USEDBY_COLORLAMP01
 215:../Dave/Generated/src/COLORLAMP01/COLORLAMP01.c ****   if(Handle->DimEngine != NULL) {
 267              		.loc 1 215 0
 268 0004 C269     		ldr	r2, [r0, #28]
 269              	.LVL29:
 213:../Dave/Generated/src/COLORLAMP01/COLORLAMP01.c **** {  
 270              		.loc 1 213 0
 271 0006 041C     		mov	r4, r0
 272 0008 0D1C     		mov	r5, r1
 273              		.loc 1 215 0
 274 000a 002A     		cmp	r2, #0
 275 000c 13D0     		beq	.L31
 216:../Dave/Generated/src/COLORLAMP01/COLORLAMP01.c ****     /* Write DimPs into Reg */
 217:../Dave/Generated/src/COLORLAMP01/COLORLAMP01.c ****     BCCUGLOBAL_SetDimClkPS(Handle->BCCUGlobal, DimPs);
 276              		.loc 1 217 0
 277 000e 191C     		mov	r1, r3
 278              	.LVL30:
 279 0010 006A     		ldr	r0, [r0, #32]
 280              	.LVL31:
 281 0012 FFF7FEFF 		bl	BCCUGLOBAL_SetDimClkPS
 282              	.LVL32:
 218:../Dave/Generated/src/COLORLAMP01/COLORLAMP01.c **** 
 219:../Dave/Generated/src/COLORLAMP01/COLORLAMP01.c ****     BCCUDIM01_SetDimDiv(Handle->DimEngine, DimDiv);
 283              		.loc 1 219 0
 284 0016 E069     		ldr	r0, [r4, #28]
 285 0018 311C     		mov	r1, r6
 286 001a FFF7FEFF 		bl	BCCUDIM01_SetDimDiv
 287              	.LVL33:
 220:../Dave/Generated/src/COLORLAMP01/COLORLAMP01.c **** 
 221:../Dave/Generated/src/COLORLAMP01/COLORLAMP01.c ****     /* Configure DimLevel in Reg */
 222:../Dave/Generated/src/COLORLAMP01/COLORLAMP01.c ****     BCCUDIM01_SetDimLvl(Handle->DimEngine, DimLevel);
 288              		.loc 1 222 0
 289 001e E069     		ldr	r0, [r4, #28]
 290 0020 291C     		mov	r1, r5
 291 0022 FFF7FEFF 		bl	BCCUDIM01_SetDimLvl
 292              	.LVL34:
 223:../Dave/Generated/src/COLORLAMP01/COLORLAMP01.c ****     /* Start Dimming */
 224:../Dave/Generated/src/COLORLAMP01/COLORLAMP01.c ****     BCCUDIM01_StartDimming(Handle->DimEngine,
 225:../Dave/Generated/src/COLORLAMP01/COLORLAMP01.c ****            GET_CHANNEL_DIM_MASK(Handle->DimEngine->DE_Num));
 293              		.loc 1 225 0
 294 0026 E469     		ldr	r4, [r4, #28]
 295              	.LVL35:
 224:../Dave/Generated/src/COLORLAMP01/COLORLAMP01.c ****     BCCUDIM01_StartDimming(Handle->DimEngine,
 296              		.loc 1 224 0
 297 0028 207A     		ldrb	r0, [r4, #8]
 298 002a FFF7FEFF 		bl	GET_CHANNEL_DIM_MASK
 299              	.LVL36:
 300 002e 011C     		mov	r1, r0
 301 0030 201C     		mov	r0, r4
 302 0032 FFF7FEFF 		bl	BCCUDIM01_StartDimming
 303              	.LVL37:
 304              	.L31:
 226:../Dave/Generated/src/COLORLAMP01/COLORLAMP01.c ****   }
 227:../Dave/Generated/src/COLORLAMP01/COLORLAMP01.c **** #endif
 228:../Dave/Generated/src/COLORLAMP01/COLORLAMP01.c **** }
 305              		.loc 1 228 0
 306              		@ sp needed for prologue
 307              	.LVL38:
 308              	.LVL39:
 309 0036 70BD     		pop	{r4, r5, r6, pc}
 310              		.cfi_endproc
 311              	.LFE43:
 313              		.section	.text.COLORLAMP01_SetDimLevelManual,"ax",%progbits
 314              		.align	1
 315              		.global	COLORLAMP01_SetDimLevelManual
 316              		.code	16
 317              		.thumb_func
 319              	COLORLAMP01_SetDimLevelManual:
 320              	.LFB44:
 229:../Dave/Generated/src/COLORLAMP01/COLORLAMP01.c **** 
 230:../Dave/Generated/src/COLORLAMP01/COLORLAMP01.c **** 
 231:../Dave/Generated/src/COLORLAMP01/COLORLAMP01.c **** /* Manual Dimming Level Setting */ 
 232:../Dave/Generated/src/COLORLAMP01/COLORLAMP01.c **** void COLORLAMP01_SetDimLevelManual(const COLORLAMP01_ConfigHandleType *Handle,
 233:../Dave/Generated/src/COLORLAMP01/COLORLAMP01.c ****                                    uint32_t DimLevel)
 234:../Dave/Generated/src/COLORLAMP01/COLORLAMP01.c **** {
 321              		.loc 1 234 0
 322              		.cfi_startproc
 323              	.LVL40:
 324 0000 08B5     		push	{r3, lr}
 325              	.LCFI5:
 326              		.cfi_def_cfa_offset 8
 327              		.cfi_offset 3, -8
 328              		.cfi_offset 14, -4
 235:../Dave/Generated/src/COLORLAMP01/COLORLAMP01.c ****   BCCUGLOBAL_SetDimLevel(Handle->BCCUGlobal, DimLevel);
 329              		.loc 1 235 0
 330 0002 006A     		ldr	r0, [r0, #32]
 331              	.LVL41:
 332 0004 FFF7FEFF 		bl	BCCUGLOBAL_SetDimLevel
 333              	.LVL42:
 236:../Dave/Generated/src/COLORLAMP01/COLORLAMP01.c **** }
 334              		.loc 1 236 0
 335              		@ sp needed for prologue
 336 0008 08BD     		pop	{r3, pc}
 337              		.cfi_endproc
 338              	.LFE44:
 340              		.text
 341              	.Letext0:
 342              		.file 2 "c:\\dave-3.1.10\\arm-gcc\\bin\\../lib/gcc/arm-none-eabi/4.7.4/../../../../arm-none-eabi/i
 343              		.file 3 "C:\\DAVE-3.1.10\\eclipse\\/../CMSIS/Infineon/XMC1200_series/Include/XMC1200.h"
 344              		.file 4 "C:\\Users\\tomasoat\\Userdata\\AEPrograms\\DAVE3_workspace_32_DAVE3110\\RGB_LED_Shield_v5
 345              		.file 5 "C:\\Users\\tomasoat\\Userdata\\AEPrograms\\DAVE3_workspace_32_DAVE3110\\RGB_LED_Shield_v5
 346              		.file 6 "C:\\Users\\tomasoat\\Userdata\\AEPrograms\\DAVE3_workspace_32_DAVE3110\\RGB_LED_Shield_v5
 347              		.file 7 "C:\\Users\\tomasoat\\Userdata\\AEPrograms\\DAVE3_workspace_32_DAVE3110\\RGB_LED_Shield_v5