   1              		.cpu cortex-m0
   2              		.fpu softvfp
   3              		.eabi_attribute 20, 1
   4              		.eabi_attribute 21, 1
   5              		.eabi_attribute 23, 3
   6              		.eabi_attribute 24, 1
   7              		.eabi_attribute 25, 1
   8              		.eabi_attribute 26, 1
   9              		.eabi_attribute 30, 4
  10              		.eabi_attribute 34, 0
  11              		.eabi_attribute 18, 4
  12              		.code	16
  13              		.file	"ANACMP01.c"
  14              		.text
  15              	.Ltext0:
  16              		.cfi_sections	.debug_frame
  17              		.section	.text.ANACMP01_lInit,"ax",%progbits
  18              		.align	1
  19              		.global	ANACMP01_lInit
  20              		.code	16
  21              		.thumb_func
  23              	ANACMP01_lInit:
  24              	.LFB39:
  25              		.file 1 "../Dave/Generated/src/ANACMP01/ANACMP01.c"
   1:../Dave/Generated/src/ANACMP01/ANACMP01.c **** /*******************************************************************************
   2:../Dave/Generated/src/ANACMP01/ANACMP01.c **** **  DAVE App Name : ANACMP01       App Version: 1.0.12               
   3:../Dave/Generated/src/ANACMP01/ANACMP01.c **** **  This file is generated by DAVE, User modification to this file will be    **
   4:../Dave/Generated/src/ANACMP01/ANACMP01.c **** **  overwritten at the next code generation.                                  **
   5:../Dave/Generated/src/ANACMP01/ANACMP01.c **** *******************************************************************************/
   6:../Dave/Generated/src/ANACMP01/ANACMP01.c **** 
   7:../Dave/Generated/src/ANACMP01/ANACMP01.c **** /*CODE_BLOCK_BEGIN[ANACMP01.c]*/
   8:../Dave/Generated/src/ANACMP01/ANACMP01.c **** 
   9:../Dave/Generated/src/ANACMP01/ANACMP01.c **** /*******************************************************************************
  10:../Dave/Generated/src/ANACMP01/ANACMP01.c ****  Copyright (c) 2013, Infineon Technologies AG                                 **
  11:../Dave/Generated/src/ANACMP01/ANACMP01.c ****  All rights reserved.                                                         **
  12:../Dave/Generated/src/ANACMP01/ANACMP01.c ****                                                                               **
  13:../Dave/Generated/src/ANACMP01/ANACMP01.c ****  Redistribution and use in source and binary forms, with or without           **
  14:../Dave/Generated/src/ANACMP01/ANACMP01.c ****  modification,are permitted provided that the following conditions are met:   **
  15:../Dave/Generated/src/ANACMP01/ANACMP01.c ****                                                                               **
  16:../Dave/Generated/src/ANACMP01/ANACMP01.c ****  *Redistributions of source code must retain the above copyright notice,      **
  17:../Dave/Generated/src/ANACMP01/ANACMP01.c ****  this list of conditions and the following disclaimer.                        **
  18:../Dave/Generated/src/ANACMP01/ANACMP01.c ****  *Redistributions in binary form must reproduce the above copyright notice,   **
  19:../Dave/Generated/src/ANACMP01/ANACMP01.c ****  this list of conditions and the following disclaimer in the documentation    **
  20:../Dave/Generated/src/ANACMP01/ANACMP01.c ****  and/or other materials provided with the distribution.                       **
  21:../Dave/Generated/src/ANACMP01/ANACMP01.c ****  *Neither the name of the copyright holders nor the names of its contributors **
  22:../Dave/Generated/src/ANACMP01/ANACMP01.c ****  may be used to endorse or promote products derived from this software without**
  23:../Dave/Generated/src/ANACMP01/ANACMP01.c ****  specific prior written permission.                                           **
  24:../Dave/Generated/src/ANACMP01/ANACMP01.c ****                                                                               **
  25:../Dave/Generated/src/ANACMP01/ANACMP01.c ****  THIS SOFTWARE IS PROVIDED BY THE COPYRIGHT HOLDERS AND CONTRIBUTORS "AS IS"  **
  26:../Dave/Generated/src/ANACMP01/ANACMP01.c ****  AND ANY EXPRESS OR IMPLIED WARRANTIES, INCLUDING, BUT NOT LIMITED TO, THE    **
  27:../Dave/Generated/src/ANACMP01/ANACMP01.c ****  IMPLIED WARRANTIES OF MERCHANTABILITY AND FITNESS FOR A PARTICULAR PURPOSE   **
  28:../Dave/Generated/src/ANACMP01/ANACMP01.c ****  ARE  DISCLAIMED. IN NO EVENT SHALL THE COPYRIGHT HOLDER OR CONTRIBUTORS BE   **
  29:../Dave/Generated/src/ANACMP01/ANACMP01.c ****  LIABLE  FOR ANY DIRECT, INDIRECT, INCIDENTAL, SPECIAL, EXEMPLARY, OR         **
  30:../Dave/Generated/src/ANACMP01/ANACMP01.c ****  CONSEQUENTIAL DAMAGES (INCLUDING, BUT NOT LIMITED TO, PROCUREMENT OF         **
  31:../Dave/Generated/src/ANACMP01/ANACMP01.c ****  SUBSTITUTE GOODS OR  SERVICES; LOSS OF USE, DATA, OR PROFITS; OR BUSINESS    **
  32:../Dave/Generated/src/ANACMP01/ANACMP01.c ****  INTERRUPTION) HOWEVER CAUSED AND ON ANY THEORY OF LIABILITY, WHETHER IN      **
  33:../Dave/Generated/src/ANACMP01/ANACMP01.c ****  CONTRACT, STRICT LIABILITY,OR TORT (INCLUDING NEGLIGENCE OR OTHERWISE)       **
  34:../Dave/Generated/src/ANACMP01/ANACMP01.c ****  ARISING IN ANY WAY OUT OF THE USE OF THIS SOFTWARE, EVEN IF ADVISED OF THE   **
  35:../Dave/Generated/src/ANACMP01/ANACMP01.c ****  POSSIBILITY OF SUCH DAMAGE.                                                  **
  36:../Dave/Generated/src/ANACMP01/ANACMP01.c ****                                                                               **
  37:../Dave/Generated/src/ANACMP01/ANACMP01.c ****  To improve the quality of the software, users are encouraged to share        **
  38:../Dave/Generated/src/ANACMP01/ANACMP01.c ****  modifications, enhancements or bug fixes with Infineon Technologies AG       **
  39:../Dave/Generated/src/ANACMP01/ANACMP01.c ****  dave@infineon.com).                                                          **
  40:../Dave/Generated/src/ANACMP01/ANACMP01.c ****                                                                               **
  41:../Dave/Generated/src/ANACMP01/ANACMP01.c **** ********************************************************************************
  42:../Dave/Generated/src/ANACMP01/ANACMP01.c **** **                                                                            **
  43:../Dave/Generated/src/ANACMP01/ANACMP01.c **** **                                                                            **
  44:../Dave/Generated/src/ANACMP01/ANACMP01.c **** ** PLATFORM : Infineon XMC1000 Series                           			  **
  45:../Dave/Generated/src/ANACMP01/ANACMP01.c **** **                                                                            **
  46:../Dave/Generated/src/ANACMP01/ANACMP01.c **** ** COMPILER : Compiler Independent                                            **
  47:../Dave/Generated/src/ANACMP01/ANACMP01.c **** **                                                                            **
  48:../Dave/Generated/src/ANACMP01/ANACMP01.c **** ** AUTHOR : App Developer                                                     **
  49:../Dave/Generated/src/ANACMP01/ANACMP01.c **** **                                                                            **
  50:../Dave/Generated/src/ANACMP01/ANACMP01.c **** ** MAY BE CHANGED BY USER [yes/no]: Yes                                       **
  51:../Dave/Generated/src/ANACMP01/ANACMP01.c **** **                                                                            **
  52:../Dave/Generated/src/ANACMP01/ANACMP01.c **** ** MODIFICATION DATE : Aug 29, 2013                                           **
  53:../Dave/Generated/src/ANACMP01/ANACMP01.c **** **                                                                            **
  54:../Dave/Generated/src/ANACMP01/ANACMP01.c **** *******************************************************************************/
  55:../Dave/Generated/src/ANACMP01/ANACMP01.c **** 
  56:../Dave/Generated/src/ANACMP01/ANACMP01.c **** /**
  57:../Dave/Generated/src/ANACMP01/ANACMP01.c ****  * @file ANACMP01.c
  58:../Dave/Generated/src/ANACMP01/ANACMP01.c ****  *
  59:../Dave/Generated/src/ANACMP01/ANACMP01.c ****  * @brief
  60:../Dave/Generated/src/ANACMP01/ANACMP01.c ****  * This app is used for Analog comparator initialisation and check the status 
  61:../Dave/Generated/src/ANACMP01/ANACMP01.c ****  * of the output.
  62:../Dave/Generated/src/ANACMP01/ANACMP01.c ****  *
  63:../Dave/Generated/src/ANACMP01/ANACMP01.c ****  * Use case:
  64:../Dave/Generated/src/ANACMP01/ANACMP01.c ****  * To compare the two input voltages and check the status which input voltage
  65:../Dave/Generated/src/ANACMP01/ANACMP01.c ****  * is bigger. 
  66:../Dave/Generated/src/ANACMP01/ANACMP01.c ****  *
  67:../Dave/Generated/src/ANACMP01/ANACMP01.c ****  * Change History:
  68:../Dave/Generated/src/ANACMP01/ANACMP01.c ****  * Date       version       Details 
  69:../Dave/Generated/src/ANACMP01/ANACMP01.c ****  * 25-Mar-13    1.0.6   1. Initial version
  70:../Dave/Generated/src/ANACMP01/ANACMP01.c ****  *                       2. Two IO001 apps consumtion done for two input pins   
  71:../Dave/Generated/src/ANACMP01/ANACMP01.c ****  *                      3. Register structure defined in anacmpglob01 app due
  72:../Dave/Generated/src/ANACMP01/ANACMP01.c ****  *                         to XMC1000 header file update not available and
  73:../Dave/Generated/src/ANACMP01/ANACMP01.c ****  *                         code corrected as per this structure.
  74:../Dave/Generated/src/ANACMP01/ANACMP01.c ****  *                      4. Register structure removed and Code is modified to 
  75:../Dave/Generated/src/ANACMP01/ANACMP01.c ****  *                         support updated header files.
  76:../Dave/Generated/src/ANACMP01/ANACMP01.c ****  *                      5. Help Document updated.
  77:../Dave/Generated/src/ANACMP01/ANACMP01.c ****  * 10-Sep-13    1.0.8   1. Added support for the following devices under 
  78:../Dave/Generated/src/ANACMP01/ANACMP01.c ****  *                         XMC1200 and XMC1300 Series XMC1201, XMC1202, XMC1301  
  79:../Dave/Generated/src/ANACMP01/ANACMP01.c ****  *
  80:../Dave/Generated/src/ANACMP01/ANACMP01.c ****  */
  81:../Dave/Generated/src/ANACMP01/ANACMP01.c **** 
  82:../Dave/Generated/src/ANACMP01/ANACMP01.c **** /******************************************************************************
  83:../Dave/Generated/src/ANACMP01/ANACMP01.c **** **                      Author(s) Identity                                   **
  84:../Dave/Generated/src/ANACMP01/ANACMP01.c **** *******************************************************************************
  85:../Dave/Generated/src/ANACMP01/ANACMP01.c **** **                                                                           **
  86:../Dave/Generated/src/ANACMP01/ANACMP01.c **** ** Initials     Name                                                         **
  87:../Dave/Generated/src/ANACMP01/ANACMP01.c **** ** NL           App Developer                                                **
  88:../Dave/Generated/src/ANACMP01/ANACMP01.c **** ** --------------------------------------------------------------------------**
  89:../Dave/Generated/src/ANACMP01/ANACMP01.c **** 
  90:../Dave/Generated/src/ANACMP01/ANACMP01.c **** *******************************************************************************/
  91:../Dave/Generated/src/ANACMP01/ANACMP01.c **** 
  92:../Dave/Generated/src/ANACMP01/ANACMP01.c **** /*******************************************************************************
  93:../Dave/Generated/src/ANACMP01/ANACMP01.c ****  ** INCLUDE FILES                                                             **
  94:../Dave/Generated/src/ANACMP01/ANACMP01.c ****  ******************************************************************************/
  95:../Dave/Generated/src/ANACMP01/ANACMP01.c **** #include <DAVE3.h>
  96:../Dave/Generated/src/ANACMP01/ANACMP01.c **** 
  97:../Dave/Generated/src/ANACMP01/ANACMP01.c **** /**
  98:../Dave/Generated/src/ANACMP01/ANACMP01.c ****  * @cond INTERNAL_DOCS
  99:../Dave/Generated/src/ANACMP01/ANACMP01.c ****  */
 100:../Dave/Generated/src/ANACMP01/ANACMP01.c **** 
 101:../Dave/Generated/src/ANACMP01/ANACMP01.c **** /*******************************************************************************
 102:../Dave/Generated/src/ANACMP01/ANACMP01.c **** **                      Private Type Definitions                              **
 103:../Dave/Generated/src/ANACMP01/ANACMP01.c **** *******************************************************************************/
 104:../Dave/Generated/src/ANACMP01/ANACMP01.c **** 
 105:../Dave/Generated/src/ANACMP01/ANACMP01.c **** /*******************************************************************************
 106:../Dave/Generated/src/ANACMP01/ANACMP01.c **** **                      Global Constant Definitions                           **
 107:../Dave/Generated/src/ANACMP01/ANACMP01.c **** *******************************************************************************/
 108:../Dave/Generated/src/ANACMP01/ANACMP01.c **** 
 109:../Dave/Generated/src/ANACMP01/ANACMP01.c **** /*******************************************************************************
 110:../Dave/Generated/src/ANACMP01/ANACMP01.c **** **                      Global Variable Definitions                           **
 111:../Dave/Generated/src/ANACMP01/ANACMP01.c **** *******************************************************************************/
 112:../Dave/Generated/src/ANACMP01/ANACMP01.c **** 
 113:../Dave/Generated/src/ANACMP01/ANACMP01.c **** /*******************************************************************************
 114:../Dave/Generated/src/ANACMP01/ANACMP01.c **** **                      Private Constant Definitions                          **
 115:../Dave/Generated/src/ANACMP01/ANACMP01.c **** *******************************************************************************/
 116:../Dave/Generated/src/ANACMP01/ANACMP01.c **** 
 117:../Dave/Generated/src/ANACMP01/ANACMP01.c **** /**
 118:../Dave/Generated/src/ANACMP01/ANACMP01.c **** * @}
 119:../Dave/Generated/src/ANACMP01/ANACMP01.c **** */
 120:../Dave/Generated/src/ANACMP01/ANACMP01.c **** /*******************************************************************************
 121:../Dave/Generated/src/ANACMP01/ANACMP01.c **** **                 Private Function Definitions:
 122:../Dave/Generated/src/ANACMP01/ANACMP01.c **** *******************************************************************************/
 123:../Dave/Generated/src/ANACMP01/ANACMP01.c **** /**
 124:../Dave/Generated/src/ANACMP01/ANACMP01.c ****  * @brief This function initializes the app.
 125:../Dave/Generated/src/ANACMP01/ANACMP01.c ****  *
 126:../Dave/Generated/src/ANACMP01/ANACMP01.c ****  * @param [in] HandlePtr pointer to the Instance variable<BR>
 127:../Dave/Generated/src/ANACMP01/ANACMP01.c ****  *
 128:../Dave/Generated/src/ANACMP01/ANACMP01.c ****  * @return  NOne <BR>
 129:../Dave/Generated/src/ANACMP01/ANACMP01.c ****  *
 130:../Dave/Generated/src/ANACMP01/ANACMP01.c ****  * <b>Reentrancy:  Yes</b><BR>
 131:../Dave/Generated/src/ANACMP01/ANACMP01.c ****  * <b>Sync/Async:  Synchronous</b><BR>
 132:../Dave/Generated/src/ANACMP01/ANACMP01.c ****  */
 133:../Dave/Generated/src/ANACMP01/ANACMP01.c **** 
 134:../Dave/Generated/src/ANACMP01/ANACMP01.c **** void ANACMP01_lInit(const ANACMP01_HandleType *HandlePtr );
 135:../Dave/Generated/src/ANACMP01/ANACMP01.c **** 
 136:../Dave/Generated/src/ANACMP01/ANACMP01.c **** /**
 137:../Dave/Generated/src/ANACMP01/ANACMP01.c ****  * @addtogroup ANACMP01_PriviteFunctions
 138:../Dave/Generated/src/ANACMP01/ANACMP01.c ****  * @{
 139:../Dave/Generated/src/ANACMP01/ANACMP01.c ****  */
 140:../Dave/Generated/src/ANACMP01/ANACMP01.c **** /**
 141:../Dave/Generated/src/ANACMP01/ANACMP01.c ****  * @brief Initialization function which initializes the App internal data
 142:../Dave/Generated/src/ANACMP01/ANACMP01.c ****  *  structures to default values.
 143:../Dave/Generated/src/ANACMP01/ANACMP01.c ****  *
 144:../Dave/Generated/src/ANACMP01/ANACMP01.c ****  * @param [in] None<BR>
 145:../Dave/Generated/src/ANACMP01/ANACMP01.c ****  *
 146:../Dave/Generated/src/ANACMP01/ANACMP01.c ****  * @return  void<BR>
 147:../Dave/Generated/src/ANACMP01/ANACMP01.c ****  *
 148:../Dave/Generated/src/ANACMP01/ANACMP01.c ****  * <b>Reentrancy:  Yes</b><BR>
 149:../Dave/Generated/src/ANACMP01/ANACMP01.c ****  * <b>Sync/Async:  Synchronous</b><BR>
 150:../Dave/Generated/src/ANACMP01/ANACMP01.c ****  */
 151:../Dave/Generated/src/ANACMP01/ANACMP01.c ****   void ANACMP01_Init(void)
 152:../Dave/Generated/src/ANACMP01/ANACMP01.c ****   {
 153:../Dave/Generated/src/ANACMP01/ANACMP01.c ****      /* Call the local function with the handle pointer for each instance */
 154:../Dave/Generated/src/ANACMP01/ANACMP01.c ****      ANACMP01_lInit(&ANACMP01_Handle0);
 155:../Dave/Generated/src/ANACMP01/ANACMP01.c ****      /* Call the local function with the handle pointer for each instance */
 156:../Dave/Generated/src/ANACMP01/ANACMP01.c ****      ANACMP01_lInit(&ANACMP01_Handle1);
 157:../Dave/Generated/src/ANACMP01/ANACMP01.c ****      /* Call the local function with the handle pointer for each instance */
 158:../Dave/Generated/src/ANACMP01/ANACMP01.c ****      ANACMP01_lInit(&ANACMP01_Handle2);
 159:../Dave/Generated/src/ANACMP01/ANACMP01.c ****            
 160:../Dave/Generated/src/ANACMP01/ANACMP01.c ****   }
 161:../Dave/Generated/src/ANACMP01/ANACMP01.c ****    
 162:../Dave/Generated/src/ANACMP01/ANACMP01.c ****  /**
 163:../Dave/Generated/src/ANACMP01/ANACMP01.c ****  * @brief This function initialises the  ANACMPx slice with the configured 
 164:../Dave/Generated/src/ANACMP01/ANACMP01.c ****  * parameters to compare the two input signal levels.
 165:../Dave/Generated/src/ANACMP01/ANACMP01.c ****  *
 166:../Dave/Generated/src/ANACMP01/ANACMP01.c ****  * @param [in] const ANACMP01_HandleType* HandlePtr<BR>
 167:../Dave/Generated/src/ANACMP01/ANACMP01.c ****  *
 168:../Dave/Generated/src/ANACMP01/ANACMP01.c ****  * @return  void<BR>
 169:../Dave/Generated/src/ANACMP01/ANACMP01.c ****  *
 170:../Dave/Generated/src/ANACMP01/ANACMP01.c ****  * <b>Reentrancy:  Yes</b><BR>
 171:../Dave/Generated/src/ANACMP01/ANACMP01.c ****  * <b>Sync/Async:  Synchronous</b><BR>
 172:../Dave/Generated/src/ANACMP01/ANACMP01.c ****  */
 173:../Dave/Generated/src/ANACMP01/ANACMP01.c ****   void ANACMP01_lInit(const ANACMP01_HandleType* HandlePtr)
 174:../Dave/Generated/src/ANACMP01/ANACMP01.c ****   {
  26              		.loc 1 174 0
  27              		.cfi_startproc
  28              	.LVL0:
 175:../Dave/Generated/src/ANACMP01/ANACMP01.c **** 	  COMPARATOR_Type* ANACMPRegsPtr = HandlePtr->ANACMPSliceRegs0Ptr;
 176:../Dave/Generated/src/ANACMP01/ANACMP01.c **** 
 177:../Dave/Generated/src/ANACMP01/ANACMP01.c ****       /* Enable AnalogComparator
 178:../Dave/Generated/src/ANACMP01/ANACMP01.c ****        * Disable Filter selection
 179:../Dave/Generated/src/ANACMP01/ANACMP01.c ****        * Invert the output
 180:../Dave/Generated/src/ANACMP01/ANACMP01.c ****        * Selecting the Hysteresis mode selection.
 181:../Dave/Generated/src/ANACMP01/ANACMP01.c ****        * */
 182:../Dave/Generated/src/ANACMP01/ANACMP01.c **** 	  
 183:../Dave/Generated/src/ANACMP01/ANACMP01.c ****       if((HandlePtr) == (&ANACMP01_Handle0))
  29              		.loc 1 183 0
  30 0000 304A     		ldr	r2, .L6
 174:../Dave/Generated/src/ANACMP01/ANACMP01.c ****   {
  31              		.loc 1 174 0
  32 0002 30B5     		push	{r4, r5, lr}
  33              	.LCFI0:
  34              		.cfi_def_cfa_offset 12
  35              		.cfi_offset 4, -12
  36              		.cfi_offset 5, -8
  37              		.cfi_offset 14, -4
 175:../Dave/Generated/src/ANACMP01/ANACMP01.c **** 	  COMPARATOR_Type* ANACMPRegsPtr = HandlePtr->ANACMPSliceRegs0Ptr;
  38              		.loc 1 175 0
  39 0004 4368     		ldr	r3, [r0, #4]
  40              	.LVL1:
  41              		.loc 1 183 0
  42 0006 9042     		cmp	r0, r2
  43 0008 1BD1     		bne	.L2
 184:../Dave/Generated/src/ANACMP01/ANACMP01.c ****       {	    
 185:../Dave/Generated/src/ANACMP01/ANACMP01.c **** 	    ANACMPRegsPtr->ANACMP0 = (ANACMPRegsPtr->ANACMP0 & ~COMPARATOR_ANACMP0_CMP_EN_Msk) | HandlePtr
  44              		.loc 1 185 0
  45 000a 2F4A     		ldr	r2, .L6+4
  46 000c 0125     		mov	r5, #1
  47 000e 995A     		ldrh	r1, [r3, r2]
  48 0010 0478     		ldrb	r4, [r0]
  49 0012 A943     		bic	r1, r5
  50 0014 2143     		orr	r1, r4
  51 0016 9952     		strh	r1, [r3, r2]
 186:../Dave/Generated/src/ANACMP01/ANACMP01.c **** 	               
 187:../Dave/Generated/src/ANACMP01/ANACMP01.c **** 	    ANACMPRegsPtr->ANACMP0 = ((ANACMPRegsPtr->ANACMP0 & ~COMPARATOR_ANACMP0_CMP_FLT_OFF_Msk) \
  52              		.loc 1 187 0
  53 0018 8478     		ldrb	r4, [r0, #2]
  54 001a 995A     		ldrh	r1, [r3, r2]
  55 001c AC40     		lsl	r4, r4, r5
  56 001e 0225     		mov	r5, #2
  57 0020 A943     		bic	r1, r5
  58 0022 2143     		orr	r1, r4
  59 0024 9952     		strh	r1, [r3, r2]
 188:../Dave/Generated/src/ANACMP01/ANACMP01.c **** 	                                          | (HandlePtr->DisableFilterAnaCmp<<COMPARATOR_ANACMP0_CM
 189:../Dave/Generated/src/ANACMP01/ANACMP01.c **** 	    ANACMPRegsPtr->ANACMP0 = ((ANACMPRegsPtr->ANACMP0 & ~COMPARATOR_ANACMP0_CMP_INV_OUT_Msk) \
  60              		.loc 1 189 0
  61 0026 995A     		ldrh	r1, [r3, r2]
  62 0028 4478     		ldrb	r4, [r0, #1]
  63 002a 0825     		mov	r5, #8
  64 002c E400     		lsl	r4, r4, #3
  65 002e A943     		bic	r1, r5
  66 0030 2143     		orr	r1, r4
  67 0032 9952     		strh	r1, [r3, r2]
 190:../Dave/Generated/src/ANACMP01/ANACMP01.c **** 	    		                              | (HandlePtr->InvertOutputAnaCmp<< COMPARATOR_ANACMP0_CMP_INV_
 191:../Dave/Generated/src/ANACMP01/ANACMP01.c **** 	    ANACMPRegsPtr->ANACMP0 = ((ANACMPRegsPtr->ANACMP0 & ~COMPARATOR_ANACMP0_CMP_HYST_ADJ_Msk) \
  68              		.loc 1 191 0
  69 0034 995A     		ldrh	r1, [r3, r2]
  70 0036 C478     		ldrb	r4, [r0, #3]
  71 0038 3025     		mov	r5, #48
  72 003a 2401     		lsl	r4, r4, #4
  73 003c A943     		bic	r1, r5
  74 003e 2143     		orr	r1, r4
  75 0040 9952     		strh	r1, [r3, r2]
  76              	.L2:
 192:../Dave/Generated/src/ANACMP01/ANACMP01.c **** 	    						              | (HandlePtr->Hysmodesel << COMPARATOR_ANACMP0_CMP_HYST_ADJ_Pos));
 193:../Dave/Generated/src/ANACMP01/ANACMP01.c ****        }
 194:../Dave/Generated/src/ANACMP01/ANACMP01.c **** 	  
 195:../Dave/Generated/src/ANACMP01/ANACMP01.c ****       if((HandlePtr) == (&ANACMP01_Handle1))
  77              		.loc 1 195 0
  78 0042 224A     		ldr	r2, .L6+8
  79 0044 9042     		cmp	r0, r2
  80 0046 1CD1     		bne	.L3
 196:../Dave/Generated/src/ANACMP01/ANACMP01.c ****       {	    
 197:../Dave/Generated/src/ANACMP01/ANACMP01.c **** 	    ANACMPRegsPtr->ANACMP1 = (ANACMPRegsPtr->ANACMP1 & ~COMPARATOR_ANACMP0_CMP_EN_Msk) | HandlePtr
  81              		.loc 1 197 0
  82 0048 B621     		mov	r1, #182
  83 004a 0A01     		lsl	r2, r1, #4
  84 004c 995A     		ldrh	r1, [r3, r2]
  85 004e 0125     		mov	r5, #1
  86 0050 0478     		ldrb	r4, [r0]
  87 0052 A943     		bic	r1, r5
  88 0054 2143     		orr	r1, r4
  89 0056 9952     		strh	r1, [r3, r2]
 198:../Dave/Generated/src/ANACMP01/ANACMP01.c **** 	               
 199:../Dave/Generated/src/ANACMP01/ANACMP01.c **** 	    ANACMPRegsPtr->ANACMP1 = ((ANACMPRegsPtr->ANACMP1 & ~COMPARATOR_ANACMP0_CMP_FLT_OFF_Msk) \
  90              		.loc 1 199 0
  91 0058 8478     		ldrb	r4, [r0, #2]
  92 005a 995A     		ldrh	r1, [r3, r2]
  93 005c AC40     		lsl	r4, r4, r5
  94 005e 0225     		mov	r5, #2
  95 0060 A943     		bic	r1, r5
  96 0062 2143     		orr	r1, r4
  97 0064 9952     		strh	r1, [r3, r2]
 200:../Dave/Generated/src/ANACMP01/ANACMP01.c **** 	                                          | (HandlePtr->DisableFilterAnaCmp<<COMPARATOR_ANACMP0_CM
 201:../Dave/Generated/src/ANACMP01/ANACMP01.c **** 	    ANACMPRegsPtr->ANACMP1 = ((ANACMPRegsPtr->ANACMP1 & ~COMPARATOR_ANACMP0_CMP_INV_OUT_Msk) \
  98              		.loc 1 201 0
  99 0066 995A     		ldrh	r1, [r3, r2]
 100 0068 4478     		ldrb	r4, [r0, #1]
 101 006a 0825     		mov	r5, #8
 102 006c E400     		lsl	r4, r4, #3
 103 006e A943     		bic	r1, r5
 104 0070 2143     		orr	r1, r4
 105 0072 9952     		strh	r1, [r3, r2]
 202:../Dave/Generated/src/ANACMP01/ANACMP01.c **** 	    		                              | (HandlePtr->InvertOutputAnaCmp<< COMPARATOR_ANACMP0_CMP_INV_
 203:../Dave/Generated/src/ANACMP01/ANACMP01.c **** 	    ANACMPRegsPtr->ANACMP1 = ((ANACMPRegsPtr->ANACMP1 & ~COMPARATOR_ANACMP0_CMP_HYST_ADJ_Msk) \
 106              		.loc 1 203 0
 107 0074 995A     		ldrh	r1, [r3, r2]
 108 0076 C478     		ldrb	r4, [r0, #3]
 109 0078 3025     		mov	r5, #48
 110 007a 2401     		lsl	r4, r4, #4
 111 007c A943     		bic	r1, r5
 112 007e 2143     		orr	r1, r4
 113 0080 9952     		strh	r1, [r3, r2]
 114              	.L3:
 204:../Dave/Generated/src/ANACMP01/ANACMP01.c **** 	    						              | (HandlePtr->Hysmodesel << COMPARATOR_ANACMP0_CMP_HYST_ADJ_Pos));
 205:../Dave/Generated/src/ANACMP01/ANACMP01.c ****        }
 206:../Dave/Generated/src/ANACMP01/ANACMP01.c **** 	  
 207:../Dave/Generated/src/ANACMP01/ANACMP01.c ****       if((HandlePtr) == (&ANACMP01_Handle2))
 115              		.loc 1 207 0
 116 0082 134A     		ldr	r2, .L6+12
 117 0084 9042     		cmp	r0, r2
 118 0086 1BD1     		bne	.L1
 208:../Dave/Generated/src/ANACMP01/ANACMP01.c ****       {	    
 209:../Dave/Generated/src/ANACMP01/ANACMP01.c **** 	    ANACMPRegsPtr->ANACMP2 = (ANACMPRegsPtr->ANACMP2 & ~COMPARATOR_ANACMP0_CMP_EN_Msk) | HandlePtr
 119              		.loc 1 209 0
 120 0088 124A     		ldr	r2, .L6+16
 121 008a 0478     		ldrb	r4, [r0]
 122 008c 995A     		ldrh	r1, [r3, r2]
 123 008e 0125     		mov	r5, #1
 124 0090 A943     		bic	r1, r5
 125 0092 2143     		orr	r1, r4
 126 0094 9952     		strh	r1, [r3, r2]
 210:../Dave/Generated/src/ANACMP01/ANACMP01.c **** 	               
 211:../Dave/Generated/src/ANACMP01/ANACMP01.c **** 	    ANACMPRegsPtr->ANACMP2 = ((ANACMPRegsPtr->ANACMP2 & ~COMPARATOR_ANACMP0_CMP_FLT_OFF_Msk) \
 127              		.loc 1 211 0
 128 0096 8478     		ldrb	r4, [r0, #2]
 129 0098 995A     		ldrh	r1, [r3, r2]
 130 009a AC40     		lsl	r4, r4, r5
 131 009c 0225     		mov	r5, #2
 132 009e A943     		bic	r1, r5
 133 00a0 2143     		orr	r1, r4
 134 00a2 9952     		strh	r1, [r3, r2]
 212:../Dave/Generated/src/ANACMP01/ANACMP01.c **** 	                                          | (HandlePtr->DisableFilterAnaCmp<<COMPARATOR_ANACMP0_CM
 213:../Dave/Generated/src/ANACMP01/ANACMP01.c **** 	    ANACMPRegsPtr->ANACMP2 = ((ANACMPRegsPtr->ANACMP2 & ~COMPARATOR_ANACMP0_CMP_INV_OUT_Msk) \
 135              		.loc 1 213 0
 136 00a4 995A     		ldrh	r1, [r3, r2]
 137 00a6 4478     		ldrb	r4, [r0, #1]
 138 00a8 0825     		mov	r5, #8
 139 00aa E400     		lsl	r4, r4, #3
 140 00ac A943     		bic	r1, r5
 141 00ae 2143     		orr	r1, r4
 142 00b0 9952     		strh	r1, [r3, r2]
 214:../Dave/Generated/src/ANACMP01/ANACMP01.c **** 	    		                              | (HandlePtr->InvertOutputAnaCmp<< COMPARATOR_ANACMP0_CMP_INV_
 215:../Dave/Generated/src/ANACMP01/ANACMP01.c **** 	    ANACMPRegsPtr->ANACMP2 = ((ANACMPRegsPtr->ANACMP2 & ~COMPARATOR_ANACMP0_CMP_HYST_ADJ_Msk) \
 143              		.loc 1 215 0
 144 00b2 995A     		ldrh	r1, [r3, r2]
 145 00b4 C078     		ldrb	r0, [r0, #3]
 146              	.LVL2:
 147 00b6 3024     		mov	r4, #48
 148 00b8 0501     		lsl	r5, r0, #4
 149 00ba A143     		bic	r1, r4
 150 00bc 2943     		orr	r1, r5
 151 00be 9952     		strh	r1, [r3, r2]
 152              	.L1:
 216:../Dave/Generated/src/ANACMP01/ANACMP01.c **** 	    						              | (HandlePtr->Hysmodesel << COMPARATOR_ANACMP0_CMP_HYST_ADJ_Pos));
 217:../Dave/Generated/src/ANACMP01/ANACMP01.c ****        }
 218:../Dave/Generated/src/ANACMP01/ANACMP01.c **** 	  
 219:../Dave/Generated/src/ANACMP01/ANACMP01.c **** 	  
 220:../Dave/Generated/src/ANACMP01/ANACMP01.c **** 	  
 221:../Dave/Generated/src/ANACMP01/ANACMP01.c ****   }
 153              		.loc 1 221 0
 154              		@ sp needed for prologue
 155 00c0 30BD     		pop	{r4, r5, pc}
 156              	.L7:
 157 00c2 C046     		.align	2
 158              	.L6:
 159 00c4 00000000 		.word	ANACMP01_Handle0
 160 00c8 5C0B0000 		.word	2908
 161 00cc 00000000 		.word	ANACMP01_Handle1
 162 00d0 00000000 		.word	ANACMP01_Handle2
 163 00d4 640B0000 		.word	2916
 164              		.cfi_endproc
 165              	.LFE39:
 167              		.section	.text.ANACMP01_Init,"ax",%progbits
 168              		.align	1
 169              		.global	ANACMP01_Init
 170              		.code	16
 171              		.thumb_func
 173              	ANACMP01_Init:
 174              	.LFB38:
 152:../Dave/Generated/src/ANACMP01/ANACMP01.c ****   {
 175              		.loc 1 152 0
 176              		.cfi_startproc
 177 0000 08B5     		push	{r3, lr}
 178              	.LCFI1:
 179              		.cfi_def_cfa_offset 8
 180              		.cfi_offset 3, -8
 181              		.cfi_offset 14, -4
 154:../Dave/Generated/src/ANACMP01/ANACMP01.c ****      ANACMP01_lInit(&ANACMP01_Handle0);
 182              		.loc 1 154 0
 183 0002 0548     		ldr	r0, .L9
 184 0004 FFF7FEFF 		bl	ANACMP01_lInit
 185              	.LVL3:
 156:../Dave/Generated/src/ANACMP01/ANACMP01.c ****      ANACMP01_lInit(&ANACMP01_Handle1);
 186              		.loc 1 156 0
 187 0008 0448     		ldr	r0, .L9+4
 188 000a FFF7FEFF 		bl	ANACMP01_lInit
 189              	.LVL4:
 158:../Dave/Generated/src/ANACMP01/ANACMP01.c ****      ANACMP01_lInit(&ANACMP01_Handle2);
 190              		.loc 1 158 0
 191 000e 0448     		ldr	r0, .L9+8
 192 0010 FFF7FEFF 		bl	ANACMP01_lInit
 193              	.LVL5:
 160:../Dave/Generated/src/ANACMP01/ANACMP01.c ****   }
 194              		.loc 1 160 0
 195              		@ sp needed for prologue
 196 0014 08BD     		pop	{r3, pc}
 197              	.L10:
 198 0016 C046     		.align	2
 199              	.L9:
 200 0018 00000000 		.word	ANACMP01_Handle0
 201 001c 00000000 		.word	ANACMP01_Handle1
 202 0020 00000000 		.word	ANACMP01_Handle2
 203              		.cfi_endproc
 204              	.LFE38:
 206              		.section	.text.ANACMP01_CheckAnacmpOutstatus,"ax",%progbits
 207              		.align	1
 208              		.global	ANACMP01_CheckAnacmpOutstatus
 209              		.code	16
 210              		.thumb_func
 212              	ANACMP01_CheckAnacmpOutstatus:
 213              	.LFB40:
 222:../Dave/Generated/src/ANACMP01/ANACMP01.c **** 
 223:../Dave/Generated/src/ANACMP01/ANACMP01.c ****  /*******************************************************************************
 224:../Dave/Generated/src/ANACMP01/ANACMP01.c ****   **                      Public Function Definitions                          **
 225:../Dave/Generated/src/ANACMP01/ANACMP01.c ****   *******************************************************************************/
 226:../Dave/Generated/src/ANACMP01/ANACMP01.c ****   /**
 227:../Dave/Generated/src/ANACMP01/ANACMP01.c ****    * @addtogroup ANACMP01_PublicFunctions
 228:../Dave/Generated/src/ANACMP01/ANACMP01.c ****    * @{
 229:../Dave/Generated/src/ANACMP01/ANACMP01.c ****    */
 230:../Dave/Generated/src/ANACMP01/ANACMP01.c **** 
 231:../Dave/Generated/src/ANACMP01/ANACMP01.c ****  /**
 232:../Dave/Generated/src/ANACMP01/ANACMP01.c ****  * @brief This api checks the output status.
 233:../Dave/Generated/src/ANACMP01/ANACMP01.c ****  *
 234:../Dave/Generated/src/ANACMP01/ANACMP01.c ****  * @param [in] const ANACMP01_HandleType* HandlePtr<BR>
 235:../Dave/Generated/src/ANACMP01/ANACMP01.c ****  *
 236:../Dave/Generated/src/ANACMP01/ANACMP01.c ****  * @return  void<BR>
 237:../Dave/Generated/src/ANACMP01/ANACMP01.c ****  *
 238:../Dave/Generated/src/ANACMP01/ANACMP01.c ****  * <b>Reentrancy:  Yes</b><BR>
 239:../Dave/Generated/src/ANACMP01/ANACMP01.c ****  * <b>Sync/Async:  Synchronous</b><BR>
 240:../Dave/Generated/src/ANACMP01/ANACMP01.c ****  */
 241:../Dave/Generated/src/ANACMP01/ANACMP01.c **** 
 242:../Dave/Generated/src/ANACMP01/ANACMP01.c ****   uint8_t ANACMP01_CheckAnacmpOutstatus(const ANACMP01_HandleType* HandlePtr)
 243:../Dave/Generated/src/ANACMP01/ANACMP01.c ****   {
 214              		.loc 1 243 0
 215              		.cfi_startproc
 216              	.LVL6:
 244:../Dave/Generated/src/ANACMP01/ANACMP01.c **** 	  uint8_t OutputStatus=0;
 245:../Dave/Generated/src/ANACMP01/ANACMP01.c **** 	  COMPARATOR_Type* ANACMPRegsPtr = HandlePtr->ANACMPSliceRegs0Ptr;
 246:../Dave/Generated/src/ANACMP01/ANACMP01.c **** 	  
 247:../Dave/Generated/src/ANACMP01/ANACMP01.c **** 	  if((HandlePtr) == (&ANACMP01_Handle0))
 217              		.loc 1 247 0
 218 0000 0B49     		ldr	r1, .L16
 243:../Dave/Generated/src/ANACMP01/ANACMP01.c ****   {
 219              		.loc 1 243 0
 220 0002 031C     		mov	r3, r0
 245:../Dave/Generated/src/ANACMP01/ANACMP01.c **** 	  COMPARATOR_Type* ANACMPRegsPtr = HandlePtr->ANACMPSliceRegs0Ptr;
 221              		.loc 1 245 0
 222 0004 4268     		ldr	r2, [r0, #4]
 223              	.LVL7:
 244:../Dave/Generated/src/ANACMP01/ANACMP01.c **** 	  uint8_t OutputStatus=0;
 224              		.loc 1 244 0
 225 0006 0020     		mov	r0, #0
 226              	.LVL8:
 227              		.loc 1 247 0
 228 0008 8B42     		cmp	r3, r1
 229 000a 02D1     		bne	.L12
 248:../Dave/Generated/src/ANACMP01/ANACMP01.c **** 	  {	    
 249:../Dave/Generated/src/ANACMP01/ANACMP01.c **** 	     OutputStatus = (ANACMPRegsPtr->ANACMP0 >> 15);
 230              		.loc 1 249 0
 231 000c 0948     		ldr	r0, .L16+4
 232 000e 115A     		ldrh	r1, [r2, r0]
 233 0010 C80B     		lsr	r0, r1, #15
 234              	.LVL9:
 235              	.L12:
 250:../Dave/Generated/src/ANACMP01/ANACMP01.c **** 	  }
 251:../Dave/Generated/src/ANACMP01/ANACMP01.c **** 	  
 252:../Dave/Generated/src/ANACMP01/ANACMP01.c **** 	  if((HandlePtr) == (&ANACMP01_Handle1))
 236              		.loc 1 252 0
 237 0012 0949     		ldr	r1, .L16+8
 238 0014 8B42     		cmp	r3, r1
 239 0016 03D1     		bne	.L13
 253:../Dave/Generated/src/ANACMP01/ANACMP01.c **** 	  {	    
 254:../Dave/Generated/src/ANACMP01/ANACMP01.c **** 	     OutputStatus = (ANACMPRegsPtr->ANACMP1 >> 15);
 240              		.loc 1 254 0
 241 0018 B620     		mov	r0, #182
 242              	.LVL10:
 243 001a 0101     		lsl	r1, r0, #4
 244 001c 505A     		ldrh	r0, [r2, r1]
 245 001e C00B     		lsr	r0, r0, #15
 246              	.L13:
 247              	.LVL11:
 255:../Dave/Generated/src/ANACMP01/ANACMP01.c **** 	  }
 256:../Dave/Generated/src/ANACMP01/ANACMP01.c **** 	  
 257:../Dave/Generated/src/ANACMP01/ANACMP01.c **** 	  if((HandlePtr) == (&ANACMP01_Handle2))
 248              		.loc 1 257 0
 249 0020 0649     		ldr	r1, .L16+12
 250 0022 8B42     		cmp	r3, r1
 251 0024 02D1     		bne	.L14
 258:../Dave/Generated/src/ANACMP01/ANACMP01.c **** 	  {	    
 259:../Dave/Generated/src/ANACMP01/ANACMP01.c **** 	     OutputStatus = (ANACMPRegsPtr->ANACMP2 >> 15);
 252              		.loc 1 259 0
 253 0026 064B     		ldr	r3, .L16+16
 254              	.LVL12:
 255 0028 D25A     		ldrh	r2, [r2, r3]
 256              	.LVL13:
 257 002a D00B     		lsr	r0, r2, #15
 258              	.LVL14:
 259              	.L14:
 260:../Dave/Generated/src/ANACMP01/ANACMP01.c **** 	  }
 261:../Dave/Generated/src/ANACMP01/ANACMP01.c **** 	  
 262:../Dave/Generated/src/ANACMP01/ANACMP01.c **** 	  return OutputStatus;	  
 263:../Dave/Generated/src/ANACMP01/ANACMP01.c ****   }
 260              		.loc 1 263 0
 261              		@ sp needed for prologue
 262 002c 7047     		bx	lr
 263              	.L17:
 264 002e C046     		.align	2
 265              	.L16:
 266 0030 00000000 		.word	ANACMP01_Handle0
 267 0034 5C0B0000 		.word	2908
 268 0038 00000000 		.word	ANACMP01_Handle1
 269 003c 00000000 		.word	ANACMP01_Handle2
 270 0040 640B0000 		.word	2916
 271              		.cfi_endproc
 272              	.LFE40:
 274              		.text
 275              	.Letext0:
 276              		.file 2 "c:\\dave-3.1.10\\arm-gcc\\bin\\../lib/gcc/arm-none-eabi/4.7.4/../../../../arm-none-eabi/i
 277              		.file 3 "C:\\DAVE-3.1.10\\eclipse\\/../CMSIS/Infineon/XMC1200_series/Include/XMC1200.h"
 278              		.file 4 "C:\\Users\\tomasoat\\Userdata\\AEPrograms\\DAVE3_workspace_32_DAVE3110\\RGB_LED_Shield_v5
 279              		.file 5 "C:\\Users\\tomasoat\\Userdata\\AEPrograms\\DAVE3_workspace_32_DAVE3110\\RGB_LED_Shield_v5