   1              		.cpu cortex-m0
   2              		.fpu softvfp
   3              		.eabi_attribute 20, 1
   4              		.eabi_attribute 21, 1
   5              		.eabi_attribute 23, 3
   6              		.eabi_attribute 24, 1
   7              		.eabi_attribute 25, 1
   8              		.eabi_attribute 26, 1
   9              		.eabi_attribute 30, 4
  10              		.eabi_attribute 34, 0
  11              		.eabi_attribute 18, 4
  12              		.code	16
  13              		.file	"BCCUDIM01.c"
  14              		.text
  15              	.Ltext0:
  16              		.cfi_sections	.debug_frame
  17              		.section	.text.BCCUDIM01_lGUIInit,"ax",%progbits
  18              		.align	1
  19              		.global	BCCUDIM01_lGUIInit
  20              		.code	16
  21              		.thumb_func
  23              	BCCUDIM01_lGUIInit:
  24              	.LFB33:
  25              		.file 1 "../Dave/Generated/src/BCCUDIM01/BCCUDIM01.c"
   1:../Dave/Generated/src/BCCUDIM01/BCCUDIM01.c **** /*******************************************************************************
   2:../Dave/Generated/src/BCCUDIM01/BCCUDIM01.c **** **  DAVE App Name : BCCUDIM01       App Version: 1.0.5               
   3:../Dave/Generated/src/BCCUDIM01/BCCUDIM01.c **** **  This file is generated by DAVE, User modification to this file will be    **
   4:../Dave/Generated/src/BCCUDIM01/BCCUDIM01.c **** **  overwritten at the next code generation.                                  **
   5:../Dave/Generated/src/BCCUDIM01/BCCUDIM01.c **** *******************************************************************************/
   6:../Dave/Generated/src/BCCUDIM01/BCCUDIM01.c **** 
   7:../Dave/Generated/src/BCCUDIM01/BCCUDIM01.c **** /*CODE_BLOCK_BEGIN[BCCUDIM01.c]*/
   8:../Dave/Generated/src/BCCUDIM01/BCCUDIM01.c **** /****************************************************************************
   9:../Dave/Generated/src/BCCUDIM01/BCCUDIM01.c ****  * @file     BCCUDIM01.c
  10:../Dave/Generated/src/BCCUDIM01/BCCUDIM01.c ****  * @brief    Configuration header file generated based on UI settings 
  11:../Dave/Generated/src/BCCUDIM01/BCCUDIM01.c ****  *           of BCCUDIM01 App. It contains all Dimming Engine related drivers.
  12:../Dave/Generated/src/BCCUDIM01/BCCUDIM01.c ****  * @version  V1.0.6
  13:../Dave/Generated/src/BCCUDIM01/BCCUDIM01.c ****  * @date     12-Nov-13
  14:../Dave/Generated/src/BCCUDIM01/BCCUDIM01.c ****  *
  15:../Dave/Generated/src/BCCUDIM01/BCCUDIM01.c ****  * @note
  16:../Dave/Generated/src/BCCUDIM01/BCCUDIM01.c ****  * Copyright (C) 2012-2013 Infineon Technologies AG. All rights reserved.
  17:../Dave/Generated/src/BCCUDIM01/BCCUDIM01.c **** 
  18:../Dave/Generated/src/BCCUDIM01/BCCUDIM01.c ****  *
  19:../Dave/Generated/src/BCCUDIM01/BCCUDIM01.c ****  * @par
  20:../Dave/Generated/src/BCCUDIM01/BCCUDIM01.c ****  * Infineon Technologies AG (Infineon) is supplying this software for use with
  21:../Dave/Generated/src/BCCUDIM01/BCCUDIM01.c ****  * Infineon's microcontrollers.
  22:../Dave/Generated/src/BCCUDIM01/BCCUDIM01.c ****  *
  23:../Dave/Generated/src/BCCUDIM01/BCCUDIM01.c ****  * This file can be freely distributed within development tools that are
  24:../Dave/Generated/src/BCCUDIM01/BCCUDIM01.c ****  * supporting such microcontrollers.
  25:../Dave/Generated/src/BCCUDIM01/BCCUDIM01.c ****  *
  26:../Dave/Generated/src/BCCUDIM01/BCCUDIM01.c ****  *
  27:../Dave/Generated/src/BCCUDIM01/BCCUDIM01.c ****  * @par
  28:../Dave/Generated/src/BCCUDIM01/BCCUDIM01.c ****  * THIS SOFTWARE IS PROVIDED "AS IS".  NO WARRANTIES, WHETHER EXPRESS, IMPLIED
  29:../Dave/Generated/src/BCCUDIM01/BCCUDIM01.c ****  * OR STATUTORY, INCLUDING, BUT NOT LIMITED TO, IMPLIED WARRANTIES OF
  30:../Dave/Generated/src/BCCUDIM01/BCCUDIM01.c ****  * MERCHANTABILITY AND FITNESS FOR A PARTICULAR PURPOSE APPLY TO THIS SOFTWARE.
  31:../Dave/Generated/src/BCCUDIM01/BCCUDIM01.c ****  * INFINEON SHALL NOT, IN ANY CIRCUMSTANCES, BE LIABLE FOR SPECIAL, INCIDENTAL,
  32:../Dave/Generated/src/BCCUDIM01/BCCUDIM01.c ****  * OR CONSEQUENTIAL DAMAGES, FOR ANY REASON WHATSOEVER.
  33:../Dave/Generated/src/BCCUDIM01/BCCUDIM01.c ****  *
  34:../Dave/Generated/src/BCCUDIM01/BCCUDIM01.c ****  ******************************************************************************/
  35:../Dave/Generated/src/BCCUDIM01/BCCUDIM01.c **** /**************************** Change history ***********************************
  36:../Dave/Generated/src/BCCUDIM01/BCCUDIM01.c ****  * V1.0.0,	14-Feb-13	 Initial Version
  37:../Dave/Generated/src/BCCUDIM01/BCCUDIM01.c ****  * V1.0.2,	3-Apr-13	 Initial Target dimming level immediately upon 
  38:../Dave/Generated/src/BCCUDIM01/BCCUDIM01.c ****  *                       initialization and then update the desired transition 
  39:../Dave/Generated/src/BCCUDIM01/BCCUDIM01.c ****  *                       time (specified in GUI) is fixed.
  40:../Dave/Generated/src/BCCUDIM01/BCCUDIM01.c ****  * V1.0.4   4-Oct-13     C++ Support extended and Updated with new Device IDs. 
  41:../Dave/Generated/src/BCCUDIM01/BCCUDIM01.c ****  * V1.0.6   12-Nov-13     MISRA Checks done, Multiple inclusion of DAVE3.h 
  42:../Dave/Generated/src/BCCUDIM01/BCCUDIM01.c ****  *                       removed, Extern.h added
  43:../Dave/Generated/src/BCCUDIM01/BCCUDIM01.c ****  * *************************** Change history *********************************/
  44:../Dave/Generated/src/BCCUDIM01/BCCUDIM01.c **** 
  45:../Dave/Generated/src/BCCUDIM01/BCCUDIM01.c ****  
  46:../Dave/Generated/src/BCCUDIM01/BCCUDIM01.c ****  
  47:../Dave/Generated/src/BCCUDIM01/BCCUDIM01.c **** /*******************************************************************************
  48:../Dave/Generated/src/BCCUDIM01/BCCUDIM01.c ****  ** INCLUDE FILES                                                             **
  49:../Dave/Generated/src/BCCUDIM01/BCCUDIM01.c ****  ******************************************************************************/
  50:../Dave/Generated/src/BCCUDIM01/BCCUDIM01.c **** 
  51:../Dave/Generated/src/BCCUDIM01/BCCUDIM01.c **** /** Inclusion of header file */
  52:../Dave/Generated/src/BCCUDIM01/BCCUDIM01.c **** #include "../../inc/BCCUDIM01/BCCUDIM01.h"
  53:../Dave/Generated/src/BCCUDIM01/BCCUDIM01.c **** 
  54:../Dave/Generated/src/BCCUDIM01/BCCUDIM01.c **** /*******************************************************************************
  55:../Dave/Generated/src/BCCUDIM01/BCCUDIM01.c **** **                      Private Macro Definitions                             **
  56:../Dave/Generated/src/BCCUDIM01/BCCUDIM01.c **** *******************************************************************************/
  57:../Dave/Generated/src/BCCUDIM01/BCCUDIM01.c **** 
  58:../Dave/Generated/src/BCCUDIM01/BCCUDIM01.c **** 
  59:../Dave/Generated/src/BCCUDIM01/BCCUDIM01.c **** /*******************************************************************************
  60:../Dave/Generated/src/BCCUDIM01/BCCUDIM01.c **** **                      Private Type Definitions                              **
  61:../Dave/Generated/src/BCCUDIM01/BCCUDIM01.c **** *******************************************************************************/
  62:../Dave/Generated/src/BCCUDIM01/BCCUDIM01.c **** 
  63:../Dave/Generated/src/BCCUDIM01/BCCUDIM01.c **** 
  64:../Dave/Generated/src/BCCUDIM01/BCCUDIM01.c **** /*******************************************************************************
  65:../Dave/Generated/src/BCCUDIM01/BCCUDIM01.c **** **                 Private Function Declarations                              **
  66:../Dave/Generated/src/BCCUDIM01/BCCUDIM01.c **** *******************************************************************************/
  67:../Dave/Generated/src/BCCUDIM01/BCCUDIM01.c **** 
  68:../Dave/Generated/src/BCCUDIM01/BCCUDIM01.c **** void BCCUDIM01_lGUIInit(const BCCUDIM01_HandleType * handle);
  69:../Dave/Generated/src/BCCUDIM01/BCCUDIM01.c **** /*******************************************************************************
  70:../Dave/Generated/src/BCCUDIM01/BCCUDIM01.c **** **                      Global Constant Definitions                           **
  71:../Dave/Generated/src/BCCUDIM01/BCCUDIM01.c **** *******************************************************************************/
  72:../Dave/Generated/src/BCCUDIM01/BCCUDIM01.c **** 
  73:../Dave/Generated/src/BCCUDIM01/BCCUDIM01.c **** /*******************************************************************************
  74:../Dave/Generated/src/BCCUDIM01/BCCUDIM01.c **** **                      Global Variable Definitions                           **
  75:../Dave/Generated/src/BCCUDIM01/BCCUDIM01.c **** *******************************************************************************/
  76:../Dave/Generated/src/BCCUDIM01/BCCUDIM01.c **** 
  77:../Dave/Generated/src/BCCUDIM01/BCCUDIM01.c **** /*******************************************************************************
  78:../Dave/Generated/src/BCCUDIM01/BCCUDIM01.c **** **                      Private Constant Definitions                          **
  79:../Dave/Generated/src/BCCUDIM01/BCCUDIM01.c **** *******************************************************************************/
  80:../Dave/Generated/src/BCCUDIM01/BCCUDIM01.c **** 
  81:../Dave/Generated/src/BCCUDIM01/BCCUDIM01.c **** /*******************************************************************************
  82:../Dave/Generated/src/BCCUDIM01/BCCUDIM01.c **** **                 Function like macro definitions                            **
  83:../Dave/Generated/src/BCCUDIM01/BCCUDIM01.c **** *******************************************************************************/
  84:../Dave/Generated/src/BCCUDIM01/BCCUDIM01.c **** /*#define GET_CHANNEL_DIM_MASK(x) (1UL << x)  This is moved to BCCUGLOBAL.h*/
  85:../Dave/Generated/src/BCCUDIM01/BCCUDIM01.c **** /*******************************************************************************
  86:../Dave/Generated/src/BCCUDIM01/BCCUDIM01.c **** **                      Private Function Definitions                          **
  87:../Dave/Generated/src/BCCUDIM01/BCCUDIM01.c **** *******************************************************************************/
  88:../Dave/Generated/src/BCCUDIM01/BCCUDIM01.c **** 
  89:../Dave/Generated/src/BCCUDIM01/BCCUDIM01.c ****  void BCCUDIM01_lGUIInit(const BCCUDIM01_HandleType * handle)
  90:../Dave/Generated/src/BCCUDIM01/BCCUDIM01.c **** {
  26              		.loc 1 90 0
  27              		.cfi_startproc
  28              	.LVL0:
  29 0000 F8B5     		push	{r3, r4, r5, r6, r7, lr}
  30              	.LCFI0:
  31              		.cfi_def_cfa_offset 24
  32              		.cfi_offset 3, -24
  33              		.cfi_offset 4, -20
  34              		.cfi_offset 5, -16
  35              		.cfi_offset 6, -12
  36              		.cfi_offset 7, -8
  37              		.cfi_offset 14, -4
  38              		.loc 1 90 0
  39 0002 041C     		mov	r4, r0
  91:../Dave/Generated/src/BCCUDIM01/BCCUDIM01.c **** 	BCCU_DE_Type * DeRegs = handle->BCCU_DE_Regs;
  40              		.loc 1 91 0
  41 0004 4568     		ldr	r5, [r0, #4]
  42              	.LVL1:
  92:../Dave/Generated/src/BCCUDIM01/BCCUDIM01.c **** 
  93:../Dave/Generated/src/BCCUDIM01/BCCUDIM01.c **** 	BCCU_Type* BCCURegs = handle->BCCURegs;
  94:../Dave/Generated/src/BCCUDIM01/BCCUDIM01.c **** 
  95:../Dave/Generated/src/BCCUDIM01/BCCUDIM01.c **** 	/* Select the DimDiv value, Dither function 
  96:../Dave/Generated/src/BCCUDIM01/BCCUDIM01.c ****                 selection and Curve selection */
  97:../Dave/Generated/src/BCCUDIM01/BCCUDIM01.c **** 	DeRegs->DTT |= (
  98:../Dave/Generated/src/BCCUDIM01/BCCUDIM01.c ****               ((uint32_t)(handle->DitherEnable) << BCCU_DE_DTT_DTEN_Pos) |
  43              		.loc 1 98 0
  44 0006 017C     		ldrb	r1, [r0, #16]
  99:../Dave/Generated/src/BCCUDIM01/BCCUDIM01.c **** 		((uint32_t)(handle->CurveSel) << BCCU_DE_DTT_CSEL_Pos)
  45              		.loc 1 99 0
  46 0008 637C     		ldrb	r3, [r4, #17]
  97:../Dave/Generated/src/BCCUDIM01/BCCUDIM01.c **** 	DeRegs->DTT |= (
  47              		.loc 1 97 0
  48 000a AA68     		ldr	r2, [r5, #8]
  93:../Dave/Generated/src/BCCUDIM01/BCCUDIM01.c **** 	BCCU_Type* BCCURegs = handle->BCCURegs;
  49              		.loc 1 93 0
  50 000c 0668     		ldr	r6, [r0]
  51              	.LVL2:
  52              		.loc 1 99 0
  53 000e 5F04     		lsl	r7, r3, #17
  98:../Dave/Generated/src/BCCUDIM01/BCCUDIM01.c ****               ((uint32_t)(handle->DitherEnable) << BCCU_DE_DTT_DTEN_Pos) |
  54              		.loc 1 98 0
  55 0010 0804     		lsl	r0, r1, #16
  56              	.LVL3:
  57 0012 0743     		orr	r7, r0
  97:../Dave/Generated/src/BCCUDIM01/BCCUDIM01.c **** 	DeRegs->DTT |= (
  58              		.loc 1 97 0
  59 0014 1743     		orr	r7, r2
  60 0016 AF60     		str	r7, [r5, #8]
 100:../Dave/Generated/src/BCCUDIM01/BCCUDIM01.c ****         );
 101:../Dave/Generated/src/BCCUDIM01/BCCUDIM01.c **** 
 102:../Dave/Generated/src/BCCUDIM01/BCCUDIM01.c ****     /* Enable the Dimming Engine */
 103:../Dave/Generated/src/BCCUDIM01/BCCUDIM01.c ****     if (ENGINE_EN == handle->EnableAtStart)
  61              		.loc 1 103 0
  62 0018 627A     		ldrb	r2, [r4, #9]
  63 001a 012A     		cmp	r2, #1
  64 001c 05D1     		bne	.L2
 104:../Dave/Generated/src/BCCUDIM01/BCCUDIM01.c ****     {
 105:../Dave/Generated/src/BCCUDIM01/BCCUDIM01.c ****       BCCURegs->DEEN |= GET_CHANNEL_DIM_MASK(handle->DE_Num);
  65              		.loc 1 105 0
  66 001e 207A     		ldrb	r0, [r4, #8]
  67 0020 376A     		ldr	r7, [r6, #32]
  68 0022 FFF7FEFF 		bl	GET_CHANNEL_DIM_MASK
  69              	.LVL4:
  70 0026 0743     		orr	r7, r0
  71 0028 3762     		str	r7, [r6, #32]
  72              	.L2:
 106:../Dave/Generated/src/BCCUDIM01/BCCUDIM01.c ****     }
 107:../Dave/Generated/src/BCCUDIM01/BCCUDIM01.c **** 
 108:../Dave/Generated/src/BCCUDIM01/BCCUDIM01.c ****     /* Initial Dimming Level */
 109:../Dave/Generated/src/BCCUDIM01/BCCUDIM01.c ****     DeRegs->DLS |= handle->InitialLevel;
  73              		.loc 1 109 0
  74 002a 2968     		ldr	r1, [r5]
  75 002c 6069     		ldr	r0, [r4, #20]
 110:../Dave/Generated/src/BCCUDIM01/BCCUDIM01.c **** 
 111:../Dave/Generated/src/BCCUDIM01/BCCUDIM01.c ****     /* Enable the Shadow Transfer with Initial Dimming Level  */
 112:../Dave/Generated/src/BCCUDIM01/BCCUDIM01.c ****     BCCURegs->DESTRCON |= GET_CHANNEL_DIM_MASK(handle->DE_Num);
 113:../Dave/Generated/src/BCCUDIM01/BCCUDIM01.c **** 
 114:../Dave/Generated/src/BCCUDIM01/BCCUDIM01.c ****     /* Configures DIMDIV */
 115:../Dave/Generated/src/BCCUDIM01/BCCUDIM01.c ****     DeRegs->DTT |= (((uint32_t)(handle->DimDiv) << BCCU_DE_DTT_DIMDIV_Pos));
 116:../Dave/Generated/src/BCCUDIM01/BCCUDIM01.c **** 
 117:../Dave/Generated/src/BCCUDIM01/BCCUDIM01.c ****   }
  76              		.loc 1 117 0
  77              		@ sp needed for prologue
 109:../Dave/Generated/src/BCCUDIM01/BCCUDIM01.c ****     DeRegs->DLS |= handle->InitialLevel;
  78              		.loc 1 109 0
  79 002e 0143     		orr	r1, r0
  80 0030 2960     		str	r1, [r5]
 112:../Dave/Generated/src/BCCUDIM01/BCCUDIM01.c ****     BCCURegs->DESTRCON |= GET_CHANNEL_DIM_MASK(handle->DE_Num);
  81              		.loc 1 112 0
  82 0032 207A     		ldrb	r0, [r4, #8]
  83 0034 776A     		ldr	r7, [r6, #36]
  84 0036 FFF7FEFF 		bl	GET_CHANNEL_DIM_MASK
  85              	.LVL5:
  86 003a 0743     		orr	r7, r0
  87 003c 7762     		str	r7, [r6, #36]
 115:../Dave/Generated/src/BCCUDIM01/BCCUDIM01.c ****     DeRegs->DTT |= (((uint32_t)(handle->DimDiv) << BCCU_DE_DTT_DIMDIV_Pos));
  88              		.loc 1 115 0
  89 003e AE68     		ldr	r6, [r5, #8]
  90              	.LVL6:
  91 0040 E468     		ldr	r4, [r4, #12]
  92              	.LVL7:
  93 0042 3443     		orr	r4, r6
  94 0044 AC60     		str	r4, [r5, #8]
  95              	.LVL8:
  96              		.loc 1 117 0
  97 0046 F8BD     		pop	{r3, r4, r5, r6, r7, pc}
  98              		.cfi_endproc
  99              	.LFE33:
 101              		.section	.text.BCCUDIM01_Init,"ax",%progbits
 102              		.align	1
 103              		.global	BCCUDIM01_Init
 104              		.code	16
 105              		.thumb_func
 107              	BCCUDIM01_Init:
 108              	.LFB34:
 118:../Dave/Generated/src/BCCUDIM01/BCCUDIM01.c **** 
 119:../Dave/Generated/src/BCCUDIM01/BCCUDIM01.c **** /*******************************************************************************
 120:../Dave/Generated/src/BCCUDIM01/BCCUDIM01.c **** **                      Public Function Definitions                           **
 121:../Dave/Generated/src/BCCUDIM01/BCCUDIM01.c **** *******************************************************************************/
 122:../Dave/Generated/src/BCCUDIM01/BCCUDIM01.c **** void BCCUDIM01_Init(void)
 123:../Dave/Generated/src/BCCUDIM01/BCCUDIM01.c **** {
 109              		.loc 1 123 0
 110              		.cfi_startproc
 111              	.LVL9:
 112 0000 08B5     		push	{r3, lr}
 113              	.LCFI1:
 114              		.cfi_def_cfa_offset 8
 115              		.cfi_offset 3, -8
 116              		.cfi_offset 14, -4
 124:../Dave/Generated/src/BCCUDIM01/BCCUDIM01.c ****     uint32_t num;
 125:../Dave/Generated/src/BCCUDIM01/BCCUDIM01.c ****     for (num = 0; num < BCCUDIM01_NUM_INSTANCES; num++)
 126:../Dave/Generated/src/BCCUDIM01/BCCUDIM01.c ****     {
 127:../Dave/Generated/src/BCCUDIM01/BCCUDIM01.c ****         BCCUDIM01_lGUIInit(BCCUDIM01_HandleArr[num]);  
 117              		.loc 1 127 0
 118 0002 024B     		ldr	r3, .L5
 128:../Dave/Generated/src/BCCUDIM01/BCCUDIM01.c ****     }        
 129:../Dave/Generated/src/BCCUDIM01/BCCUDIM01.c ****      
 130:../Dave/Generated/src/BCCUDIM01/BCCUDIM01.c **** }
 119              		.loc 1 130 0
 120              		@ sp needed for prologue
 127:../Dave/Generated/src/BCCUDIM01/BCCUDIM01.c ****         BCCUDIM01_lGUIInit(BCCUDIM01_HandleArr[num]);  
 121              		.loc 1 127 0
 122 0004 1868     		ldr	r0, [r3]
 123 0006 FFF7FEFF 		bl	BCCUDIM01_lGUIInit
 124              	.LVL10:
 125              		.loc 1 130 0
 126 000a 08BD     		pop	{r3, pc}
 127              	.L6:
 128              		.align	2
 129              	.L5:
 130 000c 00000000 		.word	BCCUDIM01_HandleArr
 131              		.cfi_endproc
 132              	.LFE34:
 134              		.section	.text.BCCUDIM01_Enable,"ax",%progbits
 135              		.align	1
 136              		.global	BCCUDIM01_Enable
 137              		.code	16
 138              		.thumb_func
 140              	BCCUDIM01_Enable:
 141              	.LFB35:
 131:../Dave/Generated/src/BCCUDIM01/BCCUDIM01.c **** 
 132:../Dave/Generated/src/BCCUDIM01/BCCUDIM01.c **** inline void BCCUDIM01_Enable(const BCCUDIM01_HandleType * handle,
 133:../Dave/Generated/src/BCCUDIM01/BCCUDIM01.c ****     uint32_t EngineMask)
 134:../Dave/Generated/src/BCCUDIM01/BCCUDIM01.c **** {
 142              		.loc 1 134 0
 143              		.cfi_startproc
 144              	.LVL11:
 135:../Dave/Generated/src/BCCUDIM01/BCCUDIM01.c **** 	handle->BCCURegs->DEEN |= EngineMask;
 145              		.loc 1 135 0
 146 0000 0368     		ldr	r3, [r0]
 136:../Dave/Generated/src/BCCUDIM01/BCCUDIM01.c **** }
 147              		.loc 1 136 0
 148              		@ sp needed for prologue
 135:../Dave/Generated/src/BCCUDIM01/BCCUDIM01.c **** 	handle->BCCURegs->DEEN |= EngineMask;
 149              		.loc 1 135 0
 150 0002 1A6A     		ldr	r2, [r3, #32]
 151 0004 1143     		orr	r1, r2
 152              	.LVL12:
 153 0006 1962     		str	r1, [r3, #32]
 154              		.loc 1 136 0
 155 0008 7047     		bx	lr
 156              		.cfi_endproc
 157              	.LFE35:
 159              		.section	.text.BCCUDIM01_Disable,"ax",%progbits
 160              		.align	1
 161              		.global	BCCUDIM01_Disable
 162              		.code	16
 163              		.thumb_func
 165              	BCCUDIM01_Disable:
 166              	.LFB36:
 137:../Dave/Generated/src/BCCUDIM01/BCCUDIM01.c **** 
 138:../Dave/Generated/src/BCCUDIM01/BCCUDIM01.c **** 
 139:../Dave/Generated/src/BCCUDIM01/BCCUDIM01.c **** inline void BCCUDIM01_Disable(const BCCUDIM01_HandleType * handle,
 140:../Dave/Generated/src/BCCUDIM01/BCCUDIM01.c ****     uint32_t EngineMask)
 141:../Dave/Generated/src/BCCUDIM01/BCCUDIM01.c **** {
 167              		.loc 1 141 0
 168              		.cfi_startproc
 169              	.LVL13:
 142:../Dave/Generated/src/BCCUDIM01/BCCUDIM01.c ****     handle->BCCURegs->DEEN &= ~EngineMask;
 170              		.loc 1 142 0
 171 0000 0368     		ldr	r3, [r0]
 143:../Dave/Generated/src/BCCUDIM01/BCCUDIM01.c **** }
 172              		.loc 1 143 0
 173              		@ sp needed for prologue
 142:../Dave/Generated/src/BCCUDIM01/BCCUDIM01.c ****     handle->BCCURegs->DEEN &= ~EngineMask;
 174              		.loc 1 142 0
 175 0002 1A6A     		ldr	r2, [r3, #32]
 176 0004 8A43     		bic	r2, r1
 177 0006 1A62     		str	r2, [r3, #32]
 178              		.loc 1 143 0
 179 0008 7047     		bx	lr
 180              		.cfi_endproc
 181              	.LFE36:
 183              		.section	.text.BCCUDIM01_StartDimming,"ax",%progbits
 184              		.align	1
 185              		.global	BCCUDIM01_StartDimming
 186              		.code	16
 187              		.thumb_func
 189              	BCCUDIM01_StartDimming:
 190              	.LFB37:
 144:../Dave/Generated/src/BCCUDIM01/BCCUDIM01.c **** inline void BCCUDIM01_StartDimming(const BCCUDIM01_HandleType * handle,
 145:../Dave/Generated/src/BCCUDIM01/BCCUDIM01.c ****     uint32_t EngineMask)
 146:../Dave/Generated/src/BCCUDIM01/BCCUDIM01.c **** {
 191              		.loc 1 146 0
 192              		.cfi_startproc
 193              	.LVL14:
 147:../Dave/Generated/src/BCCUDIM01/BCCUDIM01.c ****     handle->BCCURegs->DESTRCON |= EngineMask;
 194              		.loc 1 147 0
 195 0000 0368     		ldr	r3, [r0]
 148:../Dave/Generated/src/BCCUDIM01/BCCUDIM01.c **** }
 196              		.loc 1 148 0
 197              		@ sp needed for prologue
 147:../Dave/Generated/src/BCCUDIM01/BCCUDIM01.c ****     handle->BCCURegs->DESTRCON |= EngineMask;
 198              		.loc 1 147 0
 199 0002 5A6A     		ldr	r2, [r3, #36]
 200 0004 1143     		orr	r1, r2
 201              	.LVL15:
 202 0006 5962     		str	r1, [r3, #36]
 203              		.loc 1 148 0
 204 0008 7047     		bx	lr
 205              		.cfi_endproc
 206              	.LFE37:
 208              		.section	.text.BCCUDIM01_AbortDimming,"ax",%progbits
 209              		.align	1
 210              		.global	BCCUDIM01_AbortDimming
 211              		.code	16
 212              		.thumb_func
 214              	BCCUDIM01_AbortDimming:
 215              	.LFB38:
 149:../Dave/Generated/src/BCCUDIM01/BCCUDIM01.c **** 
 150:../Dave/Generated/src/BCCUDIM01/BCCUDIM01.c **** inline void BCCUDIM01_AbortDimming(const BCCUDIM01_HandleType * handle,
 151:../Dave/Generated/src/BCCUDIM01/BCCUDIM01.c ****     uint32_t EngineMask)
 152:../Dave/Generated/src/BCCUDIM01/BCCUDIM01.c **** {
 216              		.loc 1 152 0
 217              		.cfi_startproc
 218              	.LVL16:
 153:../Dave/Generated/src/BCCUDIM01/BCCUDIM01.c ****     handle->BCCURegs->DESTRCON |= (EngineMask << BCCU_DESTRCON_DE0A_Pos);
 219              		.loc 1 153 0
 220 0000 0368     		ldr	r3, [r0]
 221 0002 0904     		lsl	r1, r1, #16
 222              	.LVL17:
 223 0004 5A6A     		ldr	r2, [r3, #36]
 154:../Dave/Generated/src/BCCUDIM01/BCCUDIM01.c **** }
 224              		.loc 1 154 0
 225              		@ sp needed for prologue
 153:../Dave/Generated/src/BCCUDIM01/BCCUDIM01.c ****     handle->BCCURegs->DESTRCON |= (EngineMask << BCCU_DESTRCON_DE0A_Pos);
 226              		.loc 1 153 0
 227 0006 1143     		orr	r1, r2
 228 0008 5962     		str	r1, [r3, #36]
 229              		.loc 1 154 0
 230 000a 7047     		bx	lr
 231              		.cfi_endproc
 232              	.LFE38:
 234              		.section	.text.BCCUDIM01_SetDimLvl,"ax",%progbits
 235              		.align	1
 236              		.global	BCCUDIM01_SetDimLvl
 237              		.code	16
 238              		.thumb_func
 240              	BCCUDIM01_SetDimLvl:
 241              	.LFB39:
 155:../Dave/Generated/src/BCCUDIM01/BCCUDIM01.c **** 
 156:../Dave/Generated/src/BCCUDIM01/BCCUDIM01.c **** inline void BCCUDIM01_SetDimLvl(const BCCUDIM01_HandleType * handle,
 157:../Dave/Generated/src/BCCUDIM01/BCCUDIM01.c ****     uint32_t DimLevel)
 158:../Dave/Generated/src/BCCUDIM01/BCCUDIM01.c **** {
 242              		.loc 1 158 0
 243              		.cfi_startproc
 244              	.LVL18:
 159:../Dave/Generated/src/BCCUDIM01/BCCUDIM01.c ****     WR_REG(handle->BCCU_DE_Regs->DLS, BCCU_DE_DLS_TDLEV_Msk,
 245              		.loc 1 159 0
 246 0000 4368     		ldr	r3, [r0, #4]
 247 0002 0905     		lsl	r1, r1, #20
 248              	.LVL19:
 249 0004 1A68     		ldr	r2, [r3]
 250 0006 080D     		lsr	r0, r1, #20
 251              	.LVL20:
 252 0008 120B     		lsr	r2, r2, #12
 253 000a 1103     		lsl	r1, r2, #12
 254 000c 0843     		orr	r0, r1
 255 000e 1860     		str	r0, [r3]
 160:../Dave/Generated/src/BCCUDIM01/BCCUDIM01.c ****         BCCU_DE_DLS_TDLEV_Pos, DimLevel);
 161:../Dave/Generated/src/BCCUDIM01/BCCUDIM01.c **** }
 256              		.loc 1 161 0
 257              		@ sp needed for prologue
 258 0010 7047     		bx	lr
 259              		.cfi_endproc
 260              	.LFE39:
 262              		.section	.text.BCCUDIM01_GetDimLvl,"ax",%progbits
 263              		.align	1
 264              		.global	BCCUDIM01_GetDimLvl
 265              		.code	16
 266              		.thumb_func
 268              	BCCUDIM01_GetDimLvl:
 269              	.LFB40:
 162:../Dave/Generated/src/BCCUDIM01/BCCUDIM01.c **** 
 163:../Dave/Generated/src/BCCUDIM01/BCCUDIM01.c **** inline uint32_t BCCUDIM01_GetDimLvl(const BCCUDIM01_HandleType * handle)
 164:../Dave/Generated/src/BCCUDIM01/BCCUDIM01.c **** {
 270              		.loc 1 164 0
 271              		.cfi_startproc
 272              	.LVL21:
 165:../Dave/Generated/src/BCCUDIM01/BCCUDIM01.c ****     return ((uint32_t)(handle->BCCU_DE_Regs->DL) & BCCU_DE_DL_DLEV_Msk);
 273              		.loc 1 165 0
 274 0000 4368     		ldr	r3, [r0, #4]
 166:../Dave/Generated/src/BCCUDIM01/BCCUDIM01.c **** }
 275              		.loc 1 166 0
 276              		@ sp needed for prologue
 165:../Dave/Generated/src/BCCUDIM01/BCCUDIM01.c ****     return ((uint32_t)(handle->BCCU_DE_Regs->DL) & BCCU_DE_DL_DLEV_Msk);
 277              		.loc 1 165 0
 278 0002 5868     		ldr	r0, [r3, #4]
 279              	.LVL22:
 280 0004 0105     		lsl	r1, r0, #20
 281 0006 080D     		lsr	r0, r1, #20
 282              		.loc 1 166 0
 283 0008 7047     		bx	lr
 284              		.cfi_endproc
 285              	.LFE40:
 287              		.section	.text.BCCUDIM01_GetDimCurve,"ax",%progbits
 288              		.align	1
 289              		.global	BCCUDIM01_GetDimCurve
 290              		.code	16
 291              		.thumb_func
 293              	BCCUDIM01_GetDimCurve:
 294              	.LFB41:
 167:../Dave/Generated/src/BCCUDIM01/BCCUDIM01.c **** 
 168:../Dave/Generated/src/BCCUDIM01/BCCUDIM01.c **** inline uint32_t BCCUDIM01_GetDimCurve(const BCCUDIM01_HandleType * handle)
 169:../Dave/Generated/src/BCCUDIM01/BCCUDIM01.c **** {
 295              		.loc 1 169 0
 296              		.cfi_startproc
 297              	.LVL23:
 170:../Dave/Generated/src/BCCUDIM01/BCCUDIM01.c **** 	return ((handle->BCCU_DE_Regs->DTT & BCCU_DE_DTT_CSEL_Msk)
 298              		.loc 1 170 0
 299 0000 4368     		ldr	r3, [r0, #4]
 171:../Dave/Generated/src/BCCUDIM01/BCCUDIM01.c ****         >> BCCU_DE_DTT_CSEL_Pos);	
 172:../Dave/Generated/src/BCCUDIM01/BCCUDIM01.c **** }
 300              		.loc 1 172 0
 301              		@ sp needed for prologue
 170:../Dave/Generated/src/BCCUDIM01/BCCUDIM01.c **** 	return ((handle->BCCU_DE_Regs->DTT & BCCU_DE_DTT_CSEL_Msk)
 302              		.loc 1 170 0
 303 0002 9868     		ldr	r0, [r3, #8]
 304              	.LVL24:
 305 0004 8103     		lsl	r1, r0, #14
 306 0006 C80F     		lsr	r0, r1, #31
 307              		.loc 1 172 0
 308 0008 7047     		bx	lr
 309              		.cfi_endproc
 310              	.LFE41:
 312              		.section	.text.BCCUDIM01_SetDimCurve,"ax",%progbits
 313              		.align	1
 314              		.global	BCCUDIM01_SetDimCurve
 315              		.code	16
 316              		.thumb_func
 318              	BCCUDIM01_SetDimCurve:
 319              	.LFB42:
 173:../Dave/Generated/src/BCCUDIM01/BCCUDIM01.c **** 
 174:../Dave/Generated/src/BCCUDIM01/BCCUDIM01.c **** inline void BCCUDIM01_SetDimCurve(const BCCUDIM01_HandleType * handle,
 175:../Dave/Generated/src/BCCUDIM01/BCCUDIM01.c ****     uint32_t Curve)
 176:../Dave/Generated/src/BCCUDIM01/BCCUDIM01.c **** {
 320              		.loc 1 176 0
 321              		.cfi_startproc
 322              	.LVL25:
 177:../Dave/Generated/src/BCCUDIM01/BCCUDIM01.c ****     WR_REG(handle->BCCU_DE_Regs->DTT, BCCU_DE_DTT_CSEL_Msk, BCCU_DE_DTT_CSEL_Pos,
 323              		.loc 1 177 0
 324 0000 4368     		ldr	r3, [r0, #4]
 325 0002 8022     		mov	r2, #128
 326 0004 9202     		lsl	r2, r2, #10
 327 0006 4904     		lsl	r1, r1, #17
 328              	.LVL26:
 329 0008 9868     		ldr	r0, [r3, #8]
 330              	.LVL27:
 331 000a 1140     		and	r1, r2
 332 000c 024A     		ldr	r2, .L15
 178:../Dave/Generated/src/BCCUDIM01/BCCUDIM01.c ****         Curve);
 179:../Dave/Generated/src/BCCUDIM01/BCCUDIM01.c **** }
 333              		.loc 1 179 0
 334              		@ sp needed for prologue
 177:../Dave/Generated/src/BCCUDIM01/BCCUDIM01.c ****     WR_REG(handle->BCCU_DE_Regs->DTT, BCCU_DE_DTT_CSEL_Msk, BCCU_DE_DTT_CSEL_Pos,
 335              		.loc 1 177 0
 336 000e 0240     		and	r2, r0
 337 0010 1143     		orr	r1, r2
 338 0012 9960     		str	r1, [r3, #8]
 339              		.loc 1 179 0
 340 0014 7047     		bx	lr
 341              	.L16:
 342 0016 C046     		.align	2
 343              	.L15:
 344 0018 FFFFFDFF 		.word	-131073
 345              		.cfi_endproc
 346              	.LFE42:
 348              		.section	.text.BCCUDIM01_DitherEnable,"ax",%progbits
 349              		.align	1
 350              		.global	BCCUDIM01_DitherEnable
 351              		.code	16
 352              		.thumb_func
 354              	BCCUDIM01_DitherEnable:
 355              	.LFB43:
 180:../Dave/Generated/src/BCCUDIM01/BCCUDIM01.c **** 
 181:../Dave/Generated/src/BCCUDIM01/BCCUDIM01.c **** inline void BCCUDIM01_DitherEnable(const BCCUDIM01_HandleType * handle)
 182:../Dave/Generated/src/BCCUDIM01/BCCUDIM01.c **** {
 356              		.loc 1 182 0
 357              		.cfi_startproc
 358              	.LVL28:
 183:../Dave/Generated/src/BCCUDIM01/BCCUDIM01.c ****     handle->BCCU_DE_Regs->DTT |= BCCU_DE_DTT_DTEN_Msk;
 359              		.loc 1 183 0
 360 0000 4368     		ldr	r3, [r0, #4]
 361 0002 8022     		mov	r2, #128
 362 0004 9968     		ldr	r1, [r3, #8]
 363 0006 5002     		lsl	r0, r2, #9
 364              	.LVL29:
 365 0008 0843     		orr	r0, r1
 366 000a 9860     		str	r0, [r3, #8]
 184:../Dave/Generated/src/BCCUDIM01/BCCUDIM01.c **** }
 367              		.loc 1 184 0
 368              		@ sp needed for prologue
 369 000c 7047     		bx	lr
 370              		.cfi_endproc
 371              	.LFE43:
 373              		.section	.text.BCCUDIM01_DitherDisable,"ax",%progbits
 374              		.align	1
 375              		.global	BCCUDIM01_DitherDisable
 376              		.code	16
 377              		.thumb_func
 379              	BCCUDIM01_DitherDisable:
 380              	.LFB44:
 185:../Dave/Generated/src/BCCUDIM01/BCCUDIM01.c **** 
 186:../Dave/Generated/src/BCCUDIM01/BCCUDIM01.c **** inline void BCCUDIM01_DitherDisable(const BCCUDIM01_HandleType * handle)
 187:../Dave/Generated/src/BCCUDIM01/BCCUDIM01.c **** {
 381              		.loc 1 187 0
 382              		.cfi_startproc
 383              	.LVL30:
 188:../Dave/Generated/src/BCCUDIM01/BCCUDIM01.c ****     handle->BCCU_DE_Regs->DTT &= ~BCCU_DE_DTT_DTEN_Msk;
 384              		.loc 1 188 0
 385 0000 4368     		ldr	r3, [r0, #4]
 386 0002 024A     		ldr	r2, .L19
 387 0004 9968     		ldr	r1, [r3, #8]
 189:../Dave/Generated/src/BCCUDIM01/BCCUDIM01.c **** }
 388              		.loc 1 189 0
 389              		@ sp needed for prologue
 188:../Dave/Generated/src/BCCUDIM01/BCCUDIM01.c ****     handle->BCCU_DE_Regs->DTT &= ~BCCU_DE_DTT_DTEN_Msk;
 390              		.loc 1 188 0
 391 0006 0A40     		and	r2, r1
 392 0008 9A60     		str	r2, [r3, #8]
 393              		.loc 1 189 0
 394 000a 7047     		bx	lr
 395              	.L20:
 396              		.align	2
 397              	.L19:
 398 000c FFFFFEFF 		.word	-65537
 399              		.cfi_endproc
 400              	.LFE44:
 402              		.section	.text.BCCUDIM01_FadeCompletionStatus,"ax",%progbits
 403              		.align	1
 404              		.global	BCCUDIM01_FadeCompletionStatus
 405              		.code	16
 406              		.thumb_func
 408              	BCCUDIM01_FadeCompletionStatus:
 409              	.LFB45:
 190:../Dave/Generated/src/BCCUDIM01/BCCUDIM01.c **** 
 191:../Dave/Generated/src/BCCUDIM01/BCCUDIM01.c **** 
 192:../Dave/Generated/src/BCCUDIM01/BCCUDIM01.c **** inline uint32_t BCCUDIM01_FadeCompletionStatus(const BCCUDIM01_HandleType * handle)
 193:../Dave/Generated/src/BCCUDIM01/BCCUDIM01.c **** {
 410              		.loc 1 193 0
 411              		.cfi_startproc
 412              	.LVL31:
 413 0000 38B5     		push	{r3, r4, r5, lr}
 414              	.LCFI2:
 415              		.cfi_def_cfa_offset 16
 416              		.cfi_offset 3, -16
 417              		.cfi_offset 4, -12
 418              		.cfi_offset 5, -8
 419              		.cfi_offset 14, -4
 194:../Dave/Generated/src/BCCUDIM01/BCCUDIM01.c ****     return ((handle->BCCURegs->DESTRCON & GET_CHANNEL_DIM_MASK(handle->DE_Num))
 420              		.loc 1 194 0
 421 0002 0368     		ldr	r3, [r0]
 193:../Dave/Generated/src/BCCUDIM01/BCCUDIM01.c **** {
 422              		.loc 1 193 0
 423 0004 041C     		mov	r4, r0
 424              		.loc 1 194 0
 425 0006 007A     		ldrb	r0, [r0, #8]
 426              	.LVL32:
 427 0008 5D6A     		ldr	r5, [r3, #36]
 428 000a FFF7FEFF 		bl	GET_CHANNEL_DIM_MASK
 429              	.LVL33:
 195:../Dave/Generated/src/BCCUDIM01/BCCUDIM01.c ****         >> handle->DE_Num);
 430              		.loc 1 195 0
 431 000e 217A     		ldrb	r1, [r4, #8]
 194:../Dave/Generated/src/BCCUDIM01/BCCUDIM01.c ****     return ((handle->BCCURegs->DESTRCON & GET_CHANNEL_DIM_MASK(handle->DE_Num))
 432              		.loc 1 194 0
 433 0010 0540     		and	r5, r0
 434 0012 281C     		mov	r0, r5
 435 0014 C840     		lsr	r0, r0, r1
 196:../Dave/Generated/src/BCCUDIM01/BCCUDIM01.c **** }
 436              		.loc 1 196 0
 437              		@ sp needed for prologue
 438              	.LVL34:
 439 0016 38BD     		pop	{r3, r4, r5, pc}
 440              		.cfi_endproc
 441              	.LFE45:
 443              		.section	.text.BCCUDIM01_AwaitFadeCompletion,"ax",%progbits
 444              		.align	1
 445              		.global	BCCUDIM01_AwaitFadeCompletion
 446              		.code	16
 447              		.thumb_func
 449              	BCCUDIM01_AwaitFadeCompletion:
 450              	.LFB46:
 197:../Dave/Generated/src/BCCUDIM01/BCCUDIM01.c **** 
 198:../Dave/Generated/src/BCCUDIM01/BCCUDIM01.c **** inline void BCCUDIM01_AwaitFadeCompletion(const BCCUDIM01_HandleType * handle)
 199:../Dave/Generated/src/BCCUDIM01/BCCUDIM01.c **** {
 451              		.loc 1 199 0
 452              		.cfi_startproc
 453              	.LVL35:
 454 0000 10B5     		push	{r4, lr}
 455              	.LCFI3:
 456              		.cfi_def_cfa_offset 8
 457              		.cfi_offset 4, -8
 458              		.cfi_offset 14, -4
 459 0002 041C     		mov	r4, r0
 460              	.LVL36:
 461              	.L23:
 200:../Dave/Generated/src/BCCUDIM01/BCCUDIM01.c ****   /* Poll until the fading has completed */
 201:../Dave/Generated/src/BCCUDIM01/BCCUDIM01.c ****   while (BCCUDIM01_FadeCompletionStatus(handle) == 1);
 462              		.loc 1 201 0 discriminator 1
 463 0004 201C     		mov	r0, r4
 464 0006 FFF7FEFF 		bl	BCCUDIM01_FadeCompletionStatus
 465              	.LVL37:
 466 000a 0128     		cmp	r0, #1
 467 000c FAD0     		beq	.L23
 202:../Dave/Generated/src/BCCUDIM01/BCCUDIM01.c **** }
 468              		.loc 1 202 0
 469              		@ sp needed for prologue
 470              	.LVL38:
 471 000e 10BD     		pop	{r4, pc}
 472              		.cfi_endproc
 473              	.LFE46:
 475              		.section	.text.BCCUDIM01_SetDimDiv,"ax",%progbits
 476              		.align	1
 477              		.global	BCCUDIM01_SetDimDiv
 478              		.code	16
 479              		.thumb_func
 481              	BCCUDIM01_SetDimDiv:
 482              	.LFB47:
 203:../Dave/Generated/src/BCCUDIM01/BCCUDIM01.c **** 
 204:../Dave/Generated/src/BCCUDIM01/BCCUDIM01.c **** inline void BCCUDIM01_SetDimDiv(const BCCUDIM01_HandleType * handle, uint32_t DimDiv)
 205:../Dave/Generated/src/BCCUDIM01/BCCUDIM01.c **** {
 483              		.loc 1 205 0
 484              		.cfi_startproc
 485              	.LVL39:
 206:../Dave/Generated/src/BCCUDIM01/BCCUDIM01.c ****     WR_REG(handle->BCCU_DE_Regs->DTT, BCCU_DE_DTT_DIMDIV_Msk,
 486              		.loc 1 206 0
 487 0000 4368     		ldr	r3, [r0, #4]
 488 0002 8905     		lsl	r1, r1, #22
 489              	.LVL40:
 490 0004 9A68     		ldr	r2, [r3, #8]
 491 0006 880D     		lsr	r0, r1, #22
 492              	.LVL41:
 493 0008 920A     		lsr	r2, r2, #10
 494 000a 9102     		lsl	r1, r2, #10
 495 000c 0843     		orr	r0, r1
 496 000e 9860     		str	r0, [r3, #8]
 207:../Dave/Generated/src/BCCUDIM01/BCCUDIM01.c ****         BCCU_DE_DTT_DIMDIV_Pos, DimDiv);
 208:../Dave/Generated/src/BCCUDIM01/BCCUDIM01.c **** }
 497              		.loc 1 208 0
 498              		@ sp needed for prologue
 499 0010 7047     		bx	lr
 500              		.cfi_endproc
 501              	.LFE47:
 503              		.section	.text.BCCUDIM01_GetDimDiv,"ax",%progbits
 504              		.align	1
 505              		.global	BCCUDIM01_GetDimDiv
 506              		.code	16
 507              		.thumb_func
 509              	BCCUDIM01_GetDimDiv:
 510              	.LFB48:
 209:../Dave/Generated/src/BCCUDIM01/BCCUDIM01.c **** 
 210:../Dave/Generated/src/BCCUDIM01/BCCUDIM01.c **** inline uint32_t BCCUDIM01_GetDimDiv(const BCCUDIM01_HandleType * handle)
 211:../Dave/Generated/src/BCCUDIM01/BCCUDIM01.c **** {
 511              		.loc 1 211 0
 512              		.cfi_startproc
 513              	.LVL42:
 212:../Dave/Generated/src/BCCUDIM01/BCCUDIM01.c ****     return ((uint32_t)(handle->BCCU_DE_Regs->DTT) & BCCU_DE_DTT_DIMDIV_Msk);
 514              		.loc 1 212 0
 515 0000 4368     		ldr	r3, [r0, #4]
 213:../Dave/Generated/src/BCCUDIM01/BCCUDIM01.c **** }
 516              		.loc 1 213 0
 517              		@ sp needed for prologue
 212:../Dave/Generated/src/BCCUDIM01/BCCUDIM01.c ****     return ((uint32_t)(handle->BCCU_DE_Regs->DTT) & BCCU_DE_DTT_DIMDIV_Msk);
 518              		.loc 1 212 0
 519 0002 9868     		ldr	r0, [r3, #8]
 520              	.LVL43:
 521 0004 8105     		lsl	r1, r0, #22
 522 0006 880D     		lsr	r0, r1, #22
 523              		.loc 1 213 0
 524 0008 7047     		bx	lr
 525              		.cfi_endproc
 526              	.LFE48:
 528              		.text
 529              	.Letext0:
 530              		.file 2 "C:\\DAVE-3.1.10\\eclipse\\/../CMSIS/Infineon/XMC1200_series/Include/XMC1200.h"
 531              		.file 3 "c:\\dave-3.1.10\\arm-gcc\\bin\\../lib/gcc/arm-none-eabi/4.7.4/../../../../arm-none-eabi/i
 532              		.file 4 "../Dave/Generated/src/BCCUDIM01/../../inc/BCCUDIM01/BCCUDIM01.h"
 533              		.file 5 "../Dave/Generated/src/BCCUDIM01/../../inc/BCCUDIM01/BCCUDIM01_Extern.h"
 534              		.file 6 "../Dave/Generated/src/BCCUDIM01/../../inc/BCCUDIM01/../../inc/BCCUGLOBAL/BCCUGLOBAL.h"